
tvbgone.elf:     formato del fichero elf32-avr

Secciones:
Ind Nombre        Tamaño    VMA       LMA       Desp fich Alin
  0 .text         00001f0a  00000000  00000000  00000094  2**1
                  CONTENTS, ALLOC, LOAD, READONLY, CODE
  1 .data         00000002  00800060  00001f0a  00001f9e  2**0
                  CONTENTS, ALLOC, LOAD, DATA
  2 .bss          00000004  00800062  00800062  00001fa0  2**0
                  ALLOC
  3 .stab         00002520  00000000  00000000  00001fa0  2**2
                  CONTENTS, READONLY, DEBUGGING
  4 .stabstr      000031d0  00000000  00000000  000044c0  2**0
                  CONTENTS, READONLY, DEBUGGING
  5 .comment      00000011  00000000  00000000  00007690  2**0
                  CONTENTS, READONLY
  6 .note.gnu.avr.deviceinfo 0000003c  00000000  00000000  000076a4  2**2
                  CONTENTS, READONLY

Desensamblado de la sección .text:

00000000 <__vectors>:
       0:	1a ce       	rjmp	.-972    	; 0xfffffc36 <__eeprom_end+0xff7efc36>
       2:	34 ce       	rjmp	.-920    	; 0xfffffc6c <__eeprom_end+0xff7efc6c>
       4:	33 ce       	rjmp	.-922    	; 0xfffffc6c <__eeprom_end+0xff7efc6c>
       6:	32 ce       	rjmp	.-924    	; 0xfffffc6c <__eeprom_end+0xff7efc6c>
       8:	31 ce       	rjmp	.-926    	; 0xfffffc6c <__eeprom_end+0xff7efc6c>
       a:	30 ce       	rjmp	.-928    	; 0xfffffc6c <__eeprom_end+0xff7efc6c>
       c:	2f ce       	rjmp	.-930    	; 0xfffffc6c <__eeprom_end+0xff7efc6c>
       e:	2e ce       	rjmp	.-932    	; 0xfffffc6c <__eeprom_end+0xff7efc6c>
      10:	2d ce       	rjmp	.-934    	; 0xfffffc6c <__eeprom_end+0xff7efc6c>
      12:	2c ce       	rjmp	.-936    	; 0xfffffc6c <__eeprom_end+0xff7efc6c>
      14:	2b ce       	rjmp	.-938    	; 0xfffffc6c <__eeprom_end+0xff7efc6c>
      16:	2a ce       	rjmp	.-940    	; 0xfffffc6c <__eeprom_end+0xff7efc6c>
      18:	29 ce       	rjmp	.-942    	; 0xfffffc6c <__eeprom_end+0xff7efc6c>
      1a:	28 ce       	rjmp	.-944    	; 0xfffffc6c <__eeprom_end+0xff7efc6c>
      1c:	27 ce       	rjmp	.-946    	; 0xfffffc6c <__eeprom_end+0xff7efc6c>

0000001e <EUpowerCodes>:
      1e:	20 0e f3 0d d7 0d 1a 1c 98 0d 67 0d 34 0d 12 0d      .........g.4...
      2e:	fe 0c 42 1b 64 1b ea 0c d2 0c a7 0c 8b 18 5b 0c     ..B.d.........[.
      3e:	3d 0c 22 0c 0e 0c e6 0b c8 0b b4 0b a0 0b 5f 18     =."..........._.
      4e:	8c 0b 5f 0b 48 0b 34 0b 07 0b d0 0a bc 0a 9a 0a     .._.H.4.........
      5e:	7e 0a 65 0a 51 0a 3d 0a 26 0a 12 0a f7 09 ca 09     ~.e.Q.=.&.......
      6e:	a6 09 92 09 84 09 70 09 58 09 3f 09 29 09 15 09     ......p.X.?.)...
      7e:	e9 08 be 08 91 08 76 08 6d 08 4a 08 36 08 24 08     ......v.m.J.6.$.
      8e:	10 08 fe 07 e0 07 d2 07 c4 07 b0 07 80 07 53 07     ..............S.
      9e:	3f 07 2b 07 fe 06 e7 06 dc 06 c5 06 ae 06 a5 06     ?.+.............
      ae:	96 06 7f 06 64 06 53 06 3b 06 08 06 d5 05 ac 05     ....d.S.;.......
      be:	79 05 57 05 3c 05 14 05 f2 04 db 04 c4 04 b0 04     y.W.<...........
      ce:	8c 04 6f 04 54 04 40 04 1c 04 13 04 e6 03 dd 03     ..o.T.@.........
      de:	c1 03 8e 03 82 03 6b 03 60 03 45 03 2e 03 1a 03     ......k.`.E.....
      ee:	de 02 bc 02 a5 02 8a 02 57 02 2e 02 02 02 f7 01     ........W.......
      fe:	e6 01                                               ..

00000100 <NApowerCodes>:
     100:	1a 1c f8 1b b9 1b 94 1b 64 1b 42 1b 0f 1b e9 1a     ........d.B.....
     110:	b6 1a 8a 1a 68 1a 38 1a 0b 1a dc 19 c8 19 b4 19     ....h.8.........
     120:	9a 19 6e 19 22 19 e3 18 b3 18 8b 18 5f 18 3f 18     ..n."......._.?.
     130:	1c 18 ef 17 c9 17 b7 17 99 17 77 17 63 17 41 17     ..........w.c.A.
     140:	2d 17 ee 16 da 16 bf 16 a7 16 93 16 7f 16 71 16     -.............q.
     150:	5e 16 42 16 16 16 fb 15 cf 15 a3 15 79 15 65 15     ^.B.........y.e.
     160:	51 15 41 15 20 15 0c 15 f8 14 db 14 cf 14 b3 14     Q.A. ...........
     170:	9c 14 83 14 63 14 4f 14 3b 14 27 14 13 14 ff 13     ....c.O.;.'.....
     180:	ed 13 b6 13 98 13 84 13 69 13 55 13 37 13 28 13     ........i.U.7.(.
     190:	14 13 00 13 ec 12 bf 12 ab 12 9d 12 83 12 6f 12     ..............o.
     1a0:	63 12 44 12 1e 12 10 12 d1 11 a7 11 68 11 3c 11     c.D.........h.<.
     1b0:	28 11 14 11 ef 10 cd 10 a7 10 74 10 66 10 3e 10     (.........t.f.>.
     1c0:	2a 10 16 10 02 10 ee 0f d0 0f bc 0f 8f 0f 7b 0f     *.............{.
     1d0:	67 0f 53 0f 3f 0f 2b 0f 17 0f eb 0e d7 0e c3 0e     g.S.?.+.........
     1e0:	af 0e 7c 0e 50 0e                                   ..|.P.

000001e6 <code_eu114Code>:
     1e6:	83 1f 03 18 0b 04 92 49 26 34 71 44 9a d1 c5 12     .......I&4qD....
     1f6:	48                                                  H

000001f7 <code_eu113Code>:
     1f7:	7f 0e 03 55 08 46 80 23 34 00 80                    ...U.F.#4..

00000202 <code_eu112Code>:
     202:	67 28 03 16 02 80 02 00 00 02 00 04 92 00 00 00     g(..............
     212:	49 2a 97 48                                         I*.H

00000216 <code_eu112Times>:
     216:	37 00 37 00 37 00 a7 00 37 00 9f 13 37 00 22 25     7.7.7...7...7."%
     226:	c0 01 bd 01 c2 01 bc 01                             ........

0000022e <code_eu111Code>:
     22e:	7f 15 03 3b 02 22 80 1a 18 01 10 c0 02              ...;.".......

0000023b <code_eu111Times>:
     23b:	31 00 34 00 31 00 fa 00 31 00 fc 00 31 00 49 09     1.4.1...1...1.I.
     24b:	31 00 e9 2e 64 00 34 00 64 00 66 00                 1...d.4.d.f.

00000257 <code_eu110Code>:
     257:	67 44 03 76 02 64 10 00 04 10 00 00 80 00 04 12     gD.v.d..........
     267:	49 2a 10 40 00 10 40 00 02 00 00 10 49 24 90        I*.@..@.....I$.

00000276 <code_eu110Times>:
     276:	38 00 37 00 38 00 a8 00 38 00 f2 12 bf 01 c5 01     8.7.8...8.......
     286:	c0 01 c5 01                                         ....

0000028a <code_eu109Code>:
     28a:	67 16 02 95 02 19 95 5e 66 55 50                    g......^fUP

00000295 <code_eu109Times>:
     295:	18 00 b9 00 1b 00 4e 00 1b 00 b7 00 1b 00 06 06     ......N.........

000002a5 <code_eu108Code>:
     2a5:	67 18 02 b0 02 45 54 16 45 54 15                    g....ET.ET.

000002b0 <code_eu108Times>:
     2b0:	0e 00 eb 01 0e 00 e7 02 0e 00 0e 12                 ............

000002bc <code_eu107Code>:
     2bc:	77 18 03 ca 02 62 08 a0 8a 19 04 08 40 83           w....b......@.

000002ca <code_eu107Times>:
     2ca:	10 00 4f 03 10 00 0c 17 11 00 2f 02 11 00 4e 03     ..O......./...N.
     2da:	11 00 4f 03                                         ..O.

000002de <code_eu106Code>:
     2de:	67 3b 03 fa 02 0b 12 49 24 92 49 8d 1c 89 27 fc     g;.....I$.I...'.
     2ee:	ab 47 22 49 ff 2a d1 c8 92 7f c9 00                 .G"I.*......

000002fa <code_eu106Times>:
     2fa:	30 00 f6 00 32 00 2f 00 32 00 5e 00 32 00 f5 00     0...2./.2.^.2...
     30a:	32 00 d0 05 32 00 da 2a 64 00 2f 00 64 00 5e 00     2...2..*d./.d.^.

0000031a <code_eu105Code>:
     31a:	67 26 03 9e 1a 84 10 00 20 90 01 00 80 40 04 12     g&...... ....@..
     32a:	09 2a ba 40                                         .*.@

0000032e <code_eu104Code>:
     32e:	67 18 02 39 03 44 40 02 44 40 01                    g..9.D@.D@.

00000339 <code_eu104Times>:
     339:	0e 00 eb 01 0e 00 e7 02 0e 00 f9 16                 ............

00000345 <code_eu103Code>:
     345:	73 18 02 50 03 29 9a 9b a9 9a 9a                    s..P.).....

00000350 <code_eu103Times>:
     350:	2c 00 2f 03 2d 00 10 02 2d 00 2f 03 2d 00 88 13     ,./.-...-./.-...

00000360 <code_eu102Code>:
     360:	67 18 02 e6 04 45 54 02 45 54 01                    g....ET.ET.

0000036b <code_eu101Code>:
     36b:	67 18 02 76 03 55 50 06 55 50 05                    g..v.UP.UP.

00000376 <code_eu101Times>:
     376:	0e 00 eb 01 0e 00 e7 02 0e 00 42 12                 ..........B.

00000382 <code_eu100Code>:
     382:	00 1b 02 cd 03 80 04 00 b8 55 40 08                 .........U@.

0000038e <code_eu099Code>:
     38e:	6f 2e 03 a5 03 46 80 00 00 00 03 44 52 00 00 0c     o....F.....DR...
     39e:	22 22 90 00 00 60 80                                ""...`.

000003a5 <code_eu099Times>:
     3a5:	2e 00 35 00 2e 00 6a 00 2e 00 04 01 2e 00 de 05     ..5...j.........
     3b5:	2e 00 d2 2a 5d 00 35 00 5d 00 6a 00                 ...*].5.].j.

000003c1 <code_eu098Code>:
     3c1:	00 1b 02 cd 03 80 01 00 b8 55 10 08                 .........U..

000003cd <code_eu098Times>:
     3cd:	03 00 08 00 03 00 12 00 03 00 1c 00 03 00 bb 31     ...............1

000003dd <code_eu097Code>:
     3dd:	73 10 02 48 09 19 ab 59 a9                          s..H...Y.

000003e6 <code_eu096Code>:
     3e6:	67 1e 03 f7 03 04 94 4b 24 95 35 24 a2 59 24 a8     g......K$.5$.Y$.
     3f6:	40                                                  @

000003f7 <code_eu096Times>:
     3f7:	0d 00 60 02 0e 00 8d 00 0e 00 28 01 0e 00 c3 01     ..`.......(.....
     407:	0e 00 5e 02 0e 00 60 02 0e 00 3f 18                 ..^...`...?.

00000413 <code_eu095Code>:
     413:	73 10 02 48 09 2a ab 6a aa                          s..H.*.j.

0000041c <code_eu094Code>:
     41c:	00 1d 03 2c 04 60 80 88 00 00 e3 04 04 40 00 06     ...,.`.......@..

0000042c <code_eu094Times>:
     42c:	03 00 08 00 03 00 12 00 03 00 18 00 03 00 26 00     ..............&.
     43c:	03 00 f1 26                                         ...&

00000440 <code_eu093Code>:
     440:	6f 0b 02 48 04 15 9a 94                             o..H....

00000448 <code_eu093Times>:
     448:	57 00 7f 02 58 00 13 01 58 00 7f 02                 W...X...X...

00000454 <code_eu092Code>:
     454:	63 16 02 5f 04 48 80 0e 22 00 10                    c.._.H.."..

0000045f <code_eu092Times>:
     45f:	30 00 32 00 30 00 94 00 30 00 95 00 30 00 90 05     0.2.0...0...0...

0000046f <code_eu091Code>:
     46f:	67 1e 02 7c 04 80 01 00 2e 00 04 00 a0              g..|.........

0000047c <code_eu091Times>:
     47c:	0f 00 8a 00 0f 00 be 01 0f 00 5d 02 0f 00 a5 19     ..........].....

0000048c <code_eu090Code>:
     48c:	00 1d 03 9c 04 60 00 88 00 02 e3 00 04 40 00 16     .....`.......@..

0000049c <code_eu090Times>:
     49c:	03 00 09 00 03 00 13 00 03 00 1d 00 03 00 27 00     ..............'.
     4ac:	03 00 f0 26                                         ...&

000004b0 <code_eu089Code>:
     4b0:	67 26 03 9f 18 84 10 40 08 82 08 01 c2 08 20 04     g&.....@...... .
     4c0:	41 04 00 40                                         A..@

000004c4 <code_eu088Code>:
     4c4:	67 18 02 cf 04 45 54 42 45 54 41                    g....ETBETA

000004cf <code_eu088Times>:
     4cf:	0e 00 eb 01 0e 00 e7 02 0e 00 0a 13                 ............

000004db <code_eu087Code>:
     4db:	67 18 02 e6 04 55 50 02 55 50 01                    g....UP.UP.

000004e6 <code_eu087Times>:
     4e6:	0e 00 eb 01 0e 00 e7 02 0e 00 06 14                 ............

000004f2 <code_eu086Code>:
     4f2:	77 18 03 00 05 45 86 5b 05 c6 5b 05 b0 42           w....E.[..[..B

00000500 <code_eu086Times>:
     500:	10 00 53 03 11 00 2a 02 11 00 52 03 11 00 53 03     ..S...*...R...S.
     510:	11 00 ef 12                                         ....

00000514 <code_eu085Code>:
     514:	67 26 03 28 05 84 82 40 08 92 48 01 c2 41 20 04     g&.(...@..H..A .
     524:	49 24 00 40                                         I$.@

00000528 <code_eu085Times>:
     528:	30 00 34 00 30 00 a0 00 30 00 90 01 30 00 48 08     0.4.0...0...0.H.
     538:	1f 03 90 01                                         ....

0000053c <code_eu084Code>:
     53c:	67 18 02 47 05 6a a0 03 aa a0 01                    g..G.j.....

00000547 <code_eu084Times>:
     547:	10 00 e4 01 10 00 e2 02 10 00 e3 02 10 00 bb 12     ................

00000557 <code_eu083Code>:
     557:	77 18 03 65 05 0e 38 21 82 26 20 82 48 23           w..e..8!.& .H#

00000565 <code_eu083Times>:
     565:	10 00 2f 02 10 00 4f 03 10 00 0c 17 11 00 2f 02     ../...O......./.
     575:	11 00 4f 03                                         ..O.

00000579 <code_eu082Code>:
     579:	63 44 03 98 05 60 82 08 24 10 41 04 82 40 00 10     cD...`..$.A..@..
     589:	09 2a 02 08 20 90 41 04 12 09 00 00 40 24 80        .*.. .A.....@$.

00000598 <code_eu082Times>:
     598:	33 00 38 00 33 00 a2 00 33 00 1a 0b 50 03 ae 01     3.8.3...3...P...
     5a8:	52 03 ad 01                                         R...

000005ac <code_eu081Code>:
     5ac:	67 50 02 c5 05 1a 5a 65 67 9a 65 9a 9b 9a 5a 65     gP....Zeg.e...Ze
     5bc:	67 9a 65 9a 9b 9a 5a 65 65                          g.e...Zee

000005c5 <code_eu081Times>:
     5c5:	1a 00 b9 00 1b 00 50 00 1b 00 b9 00 1b 00 99 10     ......P.........

000005d5 <code_eu080Code>:
     5d5:	67 44 03 f4 05 60 00 00 20 10 09 04 02 01 00 90     gD...`.. .......
     5e5:	48 2a 00 00 00 80 40 24 10 08 04 02 41 20 80        H*....@$....A .

000005f4 <code_eu080Times>:
     5f4:	37 00 39 00 37 00 a7 00 37 00 40 11 7f 03 c0 01     7.9.7...7.@.....
     604:	81 03 bf 01                                         ....

00000608 <code_eu079Code>:
     608:	67 44 03 27 06 60 00 00 24 80 09 04 92 00 00 00     gD.'.`..$.......
     618:	49 2a 00 00 00 92 00 24 12 48 00 00 01 24 80        I*.....$.H...$.

00000627 <code_eu079Times>:
     627:	35 00 3b 00 35 00 aa 00 35 00 07 11 7c 03 c0 01     5.;.5...5...|...
     637:	7d 03 c0 01                                         }...

0000063b <code_eu078Code>:
     63b:	00 0c 02 43 06 90 0d 00                             ...C....

00000643 <code_eu078Times>:
     643:	06 00 9d 03 06 00 3b 05 06 00 32 08 06 00 e3 0a     ......;...2.....

00000653 <code_eu077Code>:
     653:	83 1f 03 18 0b 04 92 49 26 32 51 c8 9a c9 47 22     .......I&2Q...G"
     663:	48                                                  H

00000664 <code_eu076Code>:
     664:	67 18 02 6f 06 2a 9a 9b aa 9a 9a                    g..o.*.....

0000066f <code_eu076Times>:
     66f:	0e 00 4b 03 10 00 2b 02 10 00 49 03 10 00 2f 13     ..K...+...I.../.

0000067f <code_eu075Code>:
     67f:	00 17 02 8a 06 05 45 46 05 45 44                    ......EF.ED

0000068a <code_eu075Times>:
     68a:	06 00 36 02 06 00 53 03 06 00 62 15                 ..6...S...b.

00000696 <code_eu074Code>:
     696:	6f 1a 03 4f 17 04 92 49 28 c6 49 24 92 51 80        o..O...I(.I$.Q.

000006a5 <code_eu073Code>:
     6a5:	73 10 02 48 09 19 57 59 55                          s..H..WYU

000006ae <code_eu072Code>:
     6ae:	00 17 02 b9 06 55 45 46 55 45 44                    .....UEFUED

000006b9 <code_eu072Times>:
     6b9:	05 00 38 02 05 00 56 03 05 00 87 13                 ..8...V.....

000006c5 <code_eu071Code>:
     6c5:	67 18 02 d0 06 45 44 56 45 44 55                    g....EDVEDU

000006d0 <code_eu071Times>:
     6d0:	0e 00 eb 01 0e 00 e7 02 0e 00 46 11                 ..........F.

000006dc <code_eu070Code>:
     6dc:	00 17 02 f2 06 14 54 06 14 54 04                    ......T..T.

000006e7 <code_eu069Code>:
     6e7:	00 17 02 f2 06 05 54 06 05 54 04                    ......T..T.

000006f2 <code_eu069Times>:
     6f2:	04 00 f3 01 04 00 ee 02 04 00 87 13                 ............

000006fe <code_eu068Code>:
     6fe:	67 1f 03 0f 07 04 92 49 26 34 49 38 9a d1 24 e2     g......I&4I8..$.
     70e:	48                                                  H

0000070f <code_eu068Times>:
     70f:	31 00 07 01 32 00 36 00 32 00 6c 00 32 00 07 01     1...2.6.2.l.2...
     71f:	32 00 ed 07 32 00 d7 27 64 00 6e 00                 2...2..'d.n.

0000072b <code_eu067Code>:
     72b:	67 0c 02 33 07 41 24 12                             g..3.A$.

00000733 <code_eu067Times>:
     733:	5e 00 d9 01 5e 00 d8 02 66 00 65 06                 ^...^...f.e.

0000073f <code_eu066Code>:
     73f:	67 28 03 fd 08 84 82 00 04 82 00 00 82 00 04 10     g(..............
     74f:	49 2a 87 41                                         I*.A

00000753 <code_eu065Code>:
     753:	83 1f 03 64 07 04 92 49 26 32 4a 38 9a c9 28 e2     ...d...I&2J8..(.
     763:	48                                                  H

00000764 <code_eu065Times>:
     764:	2f 00 0b 01 32 00 37 00 32 00 6e 00 32 00 09 01     /...2.7.2.n.2...
     774:	32 00 07 08 32 00 55 2f 64 00 70 00                 2...2.U/d.p.

00000780 <code_eu064Code>:
     780:	83 1d 03 90 07 04 92 49 26 32 51 cb d6 4a 39 72     .......I&2Q..J9r

00000790 <code_eu064Times>:
     790:	2f 00 0b 01 32 00 37 00 32 00 6e 00 32 00 09 01     /...2.7.2.n.2...
     7a0:	32 00 07 08 32 00 55 2f 64 00 39 00 64 00 70 00     2...2.U/d.9.d.p.

000007b0 <code_eu063Code>:
     7b0:	67 26 03 9e 1a 80 00 00 24 90 41 00 82 00 04 10     g&......$.A.....
     7c0:	49 2a ba 00                                         I*..

000007c4 <code_eu062Code>:
     7c4:	67 22 02 ee 07 25 99 9a 5a e9 66 66 96 a0           g"...%..Z.ff..

000007d2 <code_eu061Code>:
     7d2:	6f 18 03 50 1b 10 92 54 24 b3 09 25 42 48           o..P...T$..%BH

000007e0 <code_eu060Code>:
     7e0:	67 22 02 ee 07 25 59 9a 5a e9 56 66 96 a0           g"...%Y.Z.Vf..

000007ee <code_eu060Times>:
     7ee:	32 00 9e 00 35 00 33 00 35 00 9c 00 35 00 84 08     2...5.3.5...5...

000007fe <code_eu059Code>:
     7fe:	5f 04 02 04 08 26                                   _....&

00000804 <code_eu059Times>:
     804:	36 01 65 02 36 01 66 02 6e 02 78 20                 6.e.6.f.n.x 

00000810 <code_eu058Code>:
     810:	67 26 03 9e 1a 80 00 00 24 10 49 00 82 00 04 10     g&......$.I.....
     820:	49 2a ba 00                                         I*..

00000824 <code_eu056Code>:
     824:	67 04 02 2a 08 26                                   g..*.&

0000082a <code_eu056Times>:
     82a:	70 00 6b 00 71 00 6b 00 a5 02 ce 0a                 p.k.q.k.....

00000836 <code_eu055Code>:
     836:	67 26 03 9e 1a 80 00 00 20 92 49 00 02 40 04 90     g&...... .I..@..
     846:	09 2a ba 00                                         .*..

0000084a <code_eu054Code>:
     84a:	7f 0e 03 55 08 40 1a 23 00 d0 80                    ...U.@.#...

00000855 <code_eu054Times>:
     855:	31 00 35 00 31 00 68 00 31 00 06 01 31 00 08 01     1.5.1.h.1...1...
     865:	31 00 5e 1f 64 00 67 00                             1.^.d.g.

0000086d <code_eu053Code>:
     86d:	73 10 02 48 09 26 ab 66 aa                          s..H.&.f.

00000876 <code_eu052Code>:
     876:	7f 18 02 81 08 1a 9a 9b 9a 9a 99                    ...........

00000881 <code_eu052Times>:
     881:	10 00 46 03 11 00 2e 02 11 00 47 03 11 00 b8 18     ..F.......G.....

00000891 <code_eu051Code>:
     891:	67 34 03 aa 08 60 82 00 20 80 41 04 90 41 2a 02     g4...`.. .A..A*.
     8a1:	08 00 82 01 04 12 41 04 80                          ......A..

000008aa <code_eu051Times>:
     8aa:	54 00 58 00 54 00 05 01 54 00 20 0d 5b 01 5b 01     T.X.T...T. .[.[.
     8ba:	5b 01 5c 01                                         [.\.

000008be <code_eu050Code>:
     8be:	77 30 03 d5 08 60 00 00 00 12 49 24 92 42 80 00     w0...`....I$.B..
     8ce:	00 00 12 49 24 92 40                                ...I$.@

000008d5 <code_eu050Times>:
     8d5:	5b 00 58 00 5b 00 0b 01 5b 00 25 0e 69 01 66 01     [.X.[...[.%.i.f.
     8e5:	69 01 67 01                                         i.g.

000008e9 <code_eu049Code>:
     8e9:	67 28 03 fd 08 80 92 00 00 92 00 00 10 40 04 82     g(...........@..
     8f9:	09 2a 97 48                                         .*.H

000008fd <code_eu049Times>:
     8fd:	37 00 37 00 37 00 a7 00 37 00 e1 11 37 00 22 25     7.7.7...7...7."%
     90d:	c0 01 bd 01 c2 01 bc 01                             ........

00000915 <code_eu048Code>:
     915:	67 26 03 9e 1a 80 00 00 24 82 49 04 80 40 00 12     g&......$.I..@..
     925:	09 2a ba 00                                         .*..

00000929 <code_eu047Code>:
     929:	00 11 02 33 09 41 24 12 41 00                       ...3.A$.A.

00000933 <code_eu047Times>:
     933:	03 00 f0 01 03 00 e9 02 03 00 d0 05                 ............

0000093f <code_eu046Code>:
     93f:	73 10 02 48 09 16 ab 56 a9                          s..H...V.

00000948 <code_eu046Times>:
     948:	0f 00 ed 01 10 00 ed 01 10 00 ba 02 10 00 86 05     ................

00000958 <code_eu045Code>:
     958:	5f 0a 02 60 09 16 e5 90                             _..`....

00000960 <code_eu045Times>:
     960:	98 00 d7 01 9a 00 9c 00 9a 00 d5 01 9a 00 83 0b     ................

00000970 <code_eu044Code>:
     970:	67 26 03 78 1b a0 02 01 04 90 48 20 00 00 04 92     g&.x......H ....
     980:	49 2b 3d 00                                         I+=.

00000984 <code_eu043Code>:
     984:	5f 02 02 8a 09 10                                   _.....

0000098a <code_eu043Times>:
     98a:	0d 04 78 10 10 04 00 00                             ..x.....

00000992 <code_eu042Code>:
     992:	67 26 03 9e 1a 80 00 00 24 92 09 00 82 00 04 10     g&......$.......
     9a2:	49 2a ba 00                                         I*..

000009a6 <code_eu041Code>:
     9a6:	77 1c 03 b6 09 0c b2 ca 49 13 0b 2c b2 92 44 b0     w.......I..,..D.

000009b6 <code_eu041Times>:
     9b6:	2e 00 2c 01 31 00 2a 01 31 00 88 02 31 00 e5 03     ..,.1.*.1...1...
     9c6:	31 00 f0 0b                                         1...

000009ca <code_eu040Code>:
     9ca:	6f 34 03 e3 09 60 90 40 20 80 40 20 90 41 2a 02     o4...`.@ .@ .A*.
     9da:	41 00 82 01 00 82 41 04 80                          A.....A..

000009e3 <code_eu040Times>:
     9e3:	55 00 59 00 55 00 08 01 55 00 4a 0d 5b 01 5e 01     U.Y.U...U.J.[.^.
     9f3:	5c 01 5e 01                                         \.^.

000009f7 <code_eu039Code>:
     9f7:	63 18 02 02 0a 6a 82 83 aa 82 81                    c....j.....

00000a02 <code_eu039Times>:
     a02:	0d 00 bd 01 0d 00 a2 02 0d 00 a3 02 0d 00 e7 11     ................

00000a12 <code_eu038Code>:
     a12:	00 0b 02 1a 0a 05 60 54                             ......`T

00000a1a <code_eu038Times>:
     a1a:	03 00 ea 03 03 00 d7 05 03 00 f3 0b                 ............

00000a26 <code_eu037Code>:
     a26:	67 18 02 31 0a 45 50 02 45 50 01                    g..1.EP.EP.

00000a31 <code_eu037Times>:
     a31:	0e 00 eb 01 0e 00 e7 02 0e 00 3a 14                 ..........:.

00000a3d <code_eu036Code>:
     a3d:	67 26 03 78 1b a4 00 49 00 92 00 20 02 00 04 90     g&.x...I... ....
     a4d:	49 2b 3d 00                                         I+=.

00000a51 <code_eu034Code>:
     a51:	67 26 03 78 1b a0 02 40 04 90 09 20 02 00 04 90     g&.x...@... ....
     a61:	49 2b 3d 00                                         I+=.

00000a65 <code_eu033Code>:
     a65:	67 0e 02 6e 0a 2a 5d a9 60                          g..n.*].`

00000a6e <code_eu033Times>:
     a6e:	30 00 96 00 32 00 95 00 32 00 5b 01 32 00 78 0b     0...2...2.[.2.x.

00000a7e <code_eu032Code>:
     a7e:	77 1a 02 8a 0a 1a 56 a5 d6 95 a9 40                 w.....V....@

00000a8a <code_eu032Times>:
     a8a:	31 00 cd 00 31 00 ce 00 31 00 c8 01 31 00 6a 0e     1...1...1...1.j.

00000a9a <code_eu031Code>:
     a9a:	67 34 02 ac 0a d5 50 15 11 65 54 05 44 59 55 01     g4....P..eT.DYU.
     aaa:	51 15                                               Q.

00000aac <code_eu031Times>:
     aac:	35 00 35 00 35 00 a0 00 35 00 a1 06 46 03 a6 01     5.5.5...5...F...

00000abc <code_eu030Code>:
     abc:	67 26 03 78 1b a0 10 00 04 82 49 20 02 00 04 90     g&.x......I ....
     acc:	49 2b 3d 00                                         I+=.

00000ad0 <code_eu029Code>:
     ad0:	73 2e 03 e7 0a 47 00 00 00 00 04 64 62 00 e0 00     s....G.....db...
     ae0:	2b 23 10 07 00 00 80                                +#.....

00000ae7 <code_eu029Times>:
     ae7:	32 00 32 00 32 00 63 00 32 00 fb 00 32 00 fc 00     2.2.2.c.2...2...
     af7:	32 00 a5 05 32 00 06 2b 66 00 31 00 66 00 62 00     2...2..+f.1.f.b.

00000b07 <code_eu028Code>:
     b07:	83 1f 03 18 0b 04 92 49 26 34 72 24 9a d1 c8 92     .......I&4r$....
     b17:	48                                                  H

00000b18 <code_eu028Times>:
     b18:	2f 00 0b 01 32 00 37 00 32 00 6e 00 32 00 09 01     /...2.7.2.n.2...
     b28:	32 00 07 08 32 00 55 2f 64 00 39 00                 2...2.U/d.9.

00000b34 <code_eu027Code>:
     b34:	67 26 03 78 1b a0 82 08 24 10 41 04 10 01 20 82     g&.x....$.A... .
     b44:	48 0b 3d 00                                         H.=.

00000b48 <code_eu026Code>:
     b48:	67 18 02 53 0b 55 40 42 55 40 41                    g..S.U@BU@A

00000b53 <code_eu026Times>:
     b53:	0e 00 eb 01 0e 00 e7 02 0e 00 3e 13                 ..........>.

00000b5f <code_eu025Code>:
     b5f:	7f 15 03 6c 0b 47 00 23 3c 01 59 e0 04              ...l.G.#<.Y..

00000b6c <code_eu025Times>:
     b6c:	31 00 34 00 31 00 66 00 31 00 fa 00 31 00 fc 00     1.4.1.f.1...1...
     b7c:	31 00 49 09 31 00 e9 2e 64 00 34 00 64 00 66 00     1.I.1...d.4.d.f.

00000b8c <code_eu024Code>:
     b8c:	67 26 03 78 1b a0 02 48 04 90 01 20 00 40 04 92     g&.x...H... .@..
     b9c:	09 2b 3d 00                                         .+=.

00000ba0 <code_eu022Code>:
     ba0:	67 26 03 78 1b a4 80 41 00 12 08 24 90 40 00 02     g&.x...A...$.@..
     bb0:	09 2b 3d 00                                         .+=.

00000bb4 <code_eu021Code>:
     bb4:	67 26 03 9e 1a 84 80 00 20 82 49 00 02 00 04 90     g&...... .I.....
     bc4:	49 2a ba 40                                         I*.@

00000bc8 <code_eu020Code>:
     bc8:	6f 22 02 d6 0b 22 20 00 01 c8 88 00 00 40           o"..." ......@

00000bd6 <code_eu020Times>:
     bd6:	30 00 2d 01 30 00 8b 02 30 00 e9 03 30 00 b9 0b     0.-.0...0...0...

00000be6 <code_eu019Code>:
     be6:	67 26 03 fa 0b 80 80 00 08 12 40 01 c0 40 00 04     g&........@..@..
     bf6:	09 20 00 00                                         . ..

00000bfa <code_eu019Times>:
     bfa:	32 00 36 00 32 00 9e 00 32 00 a2 01 32 00 8b 09     2.6.2...2...2...
     c0a:	4b 03 a2 01                                         K...

00000c0e <code_eu018Code>:
     c0e:	67 26 03 78 1b a0 02 48 04 90 01 20 12 40 04 80     g&.x...H... .@..
     c1e:	09 2b 3d 00                                         .+=.

00000c22 <code_eu017Code>:
     c22:	77 18 02 2d 0c 1a 9a 9b 9a 9a 99                    w..-.......

00000c2d <code_eu017Times>:
     c2d:	0f 00 4c 03 10 00 2d 02 10 00 4c 03 10 00 68 14     ..L...-...L...h.

00000c3d <code_eu016Code>:
     c3d:	77 22 02 4b 0c 68 08 20 00 ea 02 08 00 10           w".K.h. ......

00000c4b <code_eu016Times>:
     c4b:	1c 00 5c 00 1c 00 d5 00 1c 00 d6 00 1c 00 d3 0a     ..\.............

00000c5b <code_eu015Code>:
     c5b:	67 88 03 93 0c 60 82 08 24 10 41 00 12 40 04 80     g....`..$.A..@..
     c6b:	09 2a 02 08 20 90 41 04 00 49 00 12 00 24 a8 08     .*.. .A..I...$..
     c7b:	20 82 41 04 10 01 24 00 48 00 92 a0 20 82 09 04      .A...$.H... ...
     c8b:	10 40 04 90 01 20 02 48                             .@... .H

00000c93 <code_eu015Times>:
     c93:	35 00 36 00 35 00 9c 00 35 00 ee 09 53 03 a9 01     5.6.5...5...S...
     ca3:	55 03 a8 01                                         U...

00000ca7 <code_eu013Code>:
     ca7:	67 58 02 c2 0c d4 55 00 00 40 15 54 00 01 55 56     gX....U..@.T..UV
     cb7:	d4 55 00 00 40 15 54 00 01 55 55                    .U..@.T..UU

00000cc2 <code_eu013Times>:
     cc2:	35 00 3b 00 35 00 ab 00 35 00 fe 08 7f 03 c1 01     5.;.5...5.......

00000cd2 <code_eu012Code>:
     cd2:	77 1a 02 de 0c 05 01 51 81 40 54 40                 w......Q.@T@

00000cde <code_eu012Times>:
     cde:	2e 00 ce 00 2e 00 cb 01 2e 00 77 0d                 ..........w.

00000cea <code_eu011Code>:
     cea:	67 26 03 9e 1a 84 00 48 04 02 01 04 80 09 00 12     g&.....H........
     cfa:	40 2a ba 40                                         @*.@

00000cfe <code_eu008Code>:
     cfe:	67 26 03 78 1b a0 00 41 04 92 08 24 90 40 00 02     g&.x...A...$.@..
     d0e:	09 2b 3d 00                                         .+=.

00000d12 <code_eu007Code>:
     d12:	67 34 02 24 0d d4 00 15 10 25 00 05 44 09 40 01     g4.$.....%..D.@.
     d22:	51 01                                               Q.

00000d24 <code_eu007Times>:
     d24:	32 00 36 00 32 00 9f 00 32 00 03 09 46 03 a6 01     2.6.2...2...F...

00000d34 <code_eu006Code>:
     d34:	67 44 03 53 0d 84 90 00 04 90 00 00 80 00 04 12     gD.S............
     d44:	49 2a 12 40 00 12 40 00 02 00 00 10 49 24 b0        I*.@..@.....I$.

00000d53 <code_eu006Times>:
     d53:	35 00 3f 00 35 00 ac 00 35 00 78 11 36 00 00 00     5.?.5...5.x.6...
     d63:	c7 01 d4 01                                         ....

00000d67 <code_eu005Code>:
     d67:	67 40 03 84 0d 04 92 52 28 92 8c 44 92 89 45 24     g@.....R(..D..E$
     d77:	53 44 92 52 28 92 8c 44 92 89 45 24 51              SD.R(..D..E$Q

00000d84 <code_eu005Times>:
     d84:	18 00 be 00 19 00 50 00 19 00 be 00 19 00 67 10     ......P.......g.
     d94:	19 00 bf 12                                         ....

00000d98 <code_eu004Code>:
     d98:	6b 64 03 c3 0d 60 80 00 00 00 08 00 00 00 20 00     kd...`........ .
     da8:	00 04 12 48 04 12 48 2a 02 00 00 00 00 20 00 00     ...H..H*..... ..
     db8:	00 80 00 00 10 49 20 10 49 20 80                    .....I .I .

00000dc3 <code_eu004Times>:
     dc3:	2c 00 2d 00 2c 00 83 00 2c 00 26 1d 5a 01 b0 00     ,.-.,...,.&.Z...
     dd3:	5a 01 b2 00                                         Z...

00000dd7 <code_eu002Code>:
     dd7:	77 1a 02 e3 0d 1a 56 a6 d6 95 a9 90                 w.....V.....

00000de3 <code_eu002Times>:
     de3:	2b 00 ce 00 2e 00 cc 00 2e 00 c8 01 2e 00 a0 0d     +...............

00000df3 <code_eu001Code>:
     df3:	83 1f 03 04 0e 04 92 49 26 35 89 24 9a d6 24 92     .......I&5.$..$.
     e03:	48                                                  H

00000e04 <code_eu001Times>:
     e04:	2f 00 09 01 33 00 36 00 33 00 6c 00 33 00 07 01     /...3.6.3.l.3...
     e14:	33 00 05 08 33 00 7f 2d 64 00 6d 00                 3...3..-d.m.

00000e20 <code_eu000Code>:
     e20:	6f 28 03 34 0e a4 08 00 00 00 00 64 2c 40 80 00     o(.4.......d,@..
     e30:	00 00 06 41                                         ...A

00000e34 <code_eu000Times>:
     e34:	2b 00 2f 00 2b 00 5b 00 2b 00 84 20 58 00 2f 00     +./.+.[.+.. X./.
     e44:	85 00 85 00 08 01 5a 00 08 01 5b 00                 ......Z...[.

00000e50 <code_na114Code>:
     e50:	63 26 03 64 0e 84 10 40 08 82 08 01 d2 08 20 04     c&.d...@...... .
     e60:	41 04 00 40                                         A..@

00000e64 <code_na114Times>:
     e64:	2c 00 32 00 2c 00 93 00 2c 00 bf 01 2c 00 bc 08     ,.2.,...,...,...
     e74:	17 03 8e 01 19 03 8d 01                             ........

00000e7c <code_na113Code>:
     e7c:	63 44 03 9b 0e 60 00 00 20 02 09 04 02 01 00 90     cD...`.. .......
     e8c:	48 2a 00 00 00 80 08 24 10 08 04 02 41 20 80        H*.....$....A .

00000e9b <code_na113Times>:
     e9b:	38 00 36 00 38 00 a6 00 38 00 69 0f 80 03 ba 01     8.6.8...8.i.....
     eab:	80 03 bb 01                                         ....

00000eaf <code_na112Code>:
     eaf:	67 26 03 78 1b a4 00 00 00 92 49 24 00 00 00 92     g&.x......I$....
     ebf:	49 2b 3d 00                                         I+=.

00000ec3 <code_na111Code>:
     ec3:	63 26 03 e3 15 84 92 49 20 00 00 04 92 00 00 00     c&.....I .......
     ed3:	49 2a ba 40                                         I*.@

00000ed7 <code_na110Code>:
     ed7:	63 26 03 82 19 a4 80 00 20 12 49 00 02 00 04 90     c&...... .I.....
     ee7:	49 2a 38 40                                         I*8@

00000eeb <code_na109Code>:
     eeb:	63 26 03 ff 0e a0 00 08 24 92 41 00 82 00 04 10     c&......$.A.....
     efb:	49 2e 28 00                                         I.(.

00000eff <code_na109Times>:
     eff:	3a 00 3d 00 3a 00 d3 00 3a 00 6e 25 49 00 44 10     :.=.:...:.n%I.D.
     f0f:	73 03 d3 00 1a 04 ee 01                             s.......

00000f17 <code_na108Code>:
     f17:	67 28 03 b7 15 80 90 40 00 90 40 04 92 00 00 00     g(.....@..@.....
     f27:	49 2a 97 48                                         I*.H

00000f2b <code_na107Code>:
     f2b:	67 28 03 b7 15 80 00 00 00 00 00 04 92 00 00 00     g(..............
     f3b:	49 2a 97 48                                         I*.H

00000f3f <code_na106Code>:
     f3f:	63 26 03 e3 15 80 02 00 04 90 49 24 92 00 00 00     c&........I$....
     f4f:	49 2a ba 00                                         I*..

00000f53 <code_na105Code>:
     f53:	63 26 03 82 19 a4 80 00 20 12 49 04 92 49 20 00     c&...... .I..I .
     f63:	00 0a 38 40                                         ..8@

00000f67 <code_na104Code>:
     f67:	63 26 03 82 19 a4 00 49 00 92 00 20 02 00 04 90     c&.....I... ....
     f77:	49 2a 38 40                                         I*8@

00000f7b <code_na103Code>:
     f7b:	67 28 03 b7 15 80 02 00 00 02 00 04 92 00 00 00     g(..............
     f8b:	49 2a 97 48                                         I*.H

00000f8f <code_na102Code>:
     f8f:	63 34 03 a8 0f 64 02 08 00 02 09 04 12 49 0a 10     c4...d.......I..
     f9f:	08 20 00 08 24 10 49 24 10                          . ..$.I$.

00000fa8 <code_na102Times>:
     fa8:	56 00 57 00 56 00 02 01 56 00 0a 0d 5a 01 5c 01     V.W.V...V...Z.\.
     fb8:	5c 01 5b 01                                         \.[.

00000fbc <code_na101Code>:
     fbc:	67 26 03 78 1b a0 00 09 04 92 40 20 00 00 04 92     g&.x......@ ....
     fcc:	49 2b 3d 00                                         I+=.

00000fd0 <code_na100Code>:
     fd0:	6f 22 02 de 0f 29 59 65 55 ea 56 59 55 70           o"...)YeU.VYUp

00000fde <code_na100Times>:
     fde:	2b 00 ab 00 2d 00 3c 00 2d 00 aa 00 36 00 fd 08     +...-.<.-...6...

00000fee <code_na099Code>:
     fee:	67 26 03 9e 1a 80 00 00 04 12 48 24 00 00 00 92     g&........H$....
     ffe:	49 2a ba 00                                         I*..

00001002 <code_na098Code>:
    1002:	67 26 03 78 1b a0 00 00 04 92 49 24 00 41 00 92     g&.x......I$.A..
    1012:	08 2b 3d 00                                         .+=.

00001016 <code_na097Code>:
    1016:	67 26 03 9e 1a 84 80 00 24 10 41 00 80 01 24 12     g&......$.A...$.
    1026:	48 0a ba 40                                         H..@

0000102a <code_na096Code>:
    102a:	67 26 03 9e 1a 80 80 40 04 92 49 20 92 00 04 00     g&.....@..I ....
    103a:	49 2a ba 00                                         I*..

0000103e <code_na095Code>:
    103e:	67 28 03 52 10 80 02 00 00 02 00 04 82 00 00 10     g(.R............
    104e:	49 2a 17 08                                         I*..

00001052 <code_na095Times>:
    1052:	38 00 3a 00 38 00 ae 00 38 00 c5 11 38 00 e8 24     8.:.8...8...8..$
    1062:	b8 01 be 01                                         ....

00001066 <code_na094Code>:
    1066:	6f 16 03 50 1b 10 94 62 31 98 4a 31 18 00           o..P...b1.J1..

00001074 <code_na093Code>:
    1074:	67 44 03 93 10 60 90 00 20 80 00 04 02 01 00 90     gD...`.. .......
    1084:	48 2a 02 40 00 82 00 00 10 08 04 02 41 20 80        H*.@........A .

00001093 <code_na093Times>:
    1093:	37 00 39 00 37 00 a7 00 37 00 30 11 7f 03 c0 01     7.9.7...7.0.....
    10a3:	81 03 bf 01                                         ....

000010a7 <code_na092Code>:
    10a7:	67 44 02 bd 10 d1 00 11 00 04 00 11 55 6d 10 01     gD..........Um..
    10b7:	10 00 40 01 15 55                                   ..@..U

000010bd <code_na092Times>:
    10bd:	36 00 38 00 36 00 aa 00 36 00 3f 13 c3 01 bf 01     6.8.6...6.?.....

000010cd <code_na091Code>:
    10cd:	43 34 02 df 10 d5 41 51 40 14 04 2d 54 15 14 01     C4....AQ@..-T...
    10dd:	40 41                                               @A

000010df <code_na091Times>:
    10df:	30 00 64 00 30 00 c8 00 30 00 1a 04 90 01 90 01     0.d.0...0.......

000010ef <code_na090Code>:
    10ef:	6f 14 03 fc 10 10 ab 11 8c c2 ac 46 00              o..........F.

000010fc <code_na090Times>:
    10fc:	58 00 5a 00 58 00 5b 00 58 00 b5 00 58 00 10 23     X.Z.X.[.X...X..#
    110c:	b1 00 5b 00 b1 00 b5 00                             ..[.....

00001114 <code_na089Code>:
    1114:	67 26 03 78 1b a0 02 00 04 90 49 20 80 40 04 12     g&.x......I .@..
    1124:	09 2b 3d 00                                         .+=.

00001128 <code_na088Code>:
    1128:	67 26 03 9e 1a 80 00 40 04 12 08 04 92 40 00 00     g&.....@.....@..
    1138:	09 2a ba 00                                         .*..

0000113c <code_na087Code>:
    113c:	67 26 03 50 11 a0 02 40 04 90 09 20 02 00 04 90     g&.P...@... ....
    114c:	49 2a 38 00                                         I*8.

00001150 <code_na087Times>:
    1150:	38 00 45 00 38 00 ae 00 38 00 45 10 38 00 71 25     8.E.8...8.E.8.q%
    1160:	70 03 de 00 70 03 b3 01                             p...p...

00001168 <code_na086Code>:
    1168:	6b 64 03 93 11 60 82 08 20 82 41 04 92 00 20 80     kd...`.. .A... .
    1178:	40 00 90 40 04 00 41 2a 02 08 20 82 09 04 12 48     @..@..A*.. ....H
    1188:	00 82 01 00 02 41 00 10 01 04 80                    .....A.....

00001193 <code_na086Times>:
    1193:	2a 00 2e 00 2a 00 7e 00 2a 00 4d 1b 5b 01 b0 00     *...*.~.*.M.[...
    11a3:	5b 01 b1 00                                         [...

000011a7 <code_na085Code>:
    11a7:	67 2c 03 bd 11 64 00 00 00 00 40 00 80 a1 00 00     g,...d....@.....
    11b7:	00 00 10 00 20 10                                   .... .

000011bd <code_na085Times>:
    11bd:	37 00 3c 00 37 00 a5 00 37 00 ec 08 bd 01 b5 01     7.<.7...7.......
    11cd:	c0 01 b4 01                                         ....

000011d1 <code_na084Code>:
    11d1:	6b 64 03 fc 11 60 80 00 00 00 08 00 00 40 20 00     kd...`.......@ .
    11e1:	00 04 12 48 04 12 08 2a 02 00 00 00 00 20 00 01     ...H...*..... ..
    11f1:	00 80 00 00 10 49 20 10 48 20 80                    .....I .H .

000011fc <code_na084Times>:
    11fc:	29 00 2b 00 29 00 80 00 29 00 34 1d 50 01 ab 00     ).+.)...).4.P...
    120c:	52 01 a9 00                                         R...

00001210 <code_na083Code>:
    1210:	6f 18 03 4f 17 10 92 49 46 33 09 24 94 60           o..O...IF3.$.`

0000121e <code_na082Code>:
    121e:	6f 18 03 2c 12 0a 12 49 2a b2 a1 24 92 a8           o..,...I*..$..

0000122c <code_na082Times>:
    122c:	58 00 59 00 58 00 5a 00 58 00 b3 00 58 00 b8 22     X.Y.X.Z.X...X.."
    123c:	b1 00 5a 00 b1 00 b3 00                             ..Z.....

00001244 <code_na081Code>:
    1244:	63 28 02 53 12 18 46 18 68 47 18 46 18 68 44        c(.S..F.hG.F.hD

00001253 <code_na081Times>:
    1253:	30 00 34 00 30 00 99 01 30 00 f8 01 30 00 fa 26     0.4.0...0...0..&

00001263 <code_na080Code>:
    1263:	00 1b 02 bf 14 81 50 40 b8 15 04 08                 ......P@....

0000126f <code_na079Code>:
    126f:	63 26 03 82 19 a0 82 08 24 10 41 04 90 08 20 02     c&......$.A... .
    127f:	41 0a 38 00                                         A.8.

00001283 <code_na078Code>:
    1283:	67 22 02 91 12 80 45 04 01 14 10 04 50 40           g"....E.....P@

00001291 <code_na078Times>:
    1291:	28 00 13 01 a0 00 9a 00 e0 01 9b 00                 (...........

0000129d <code_na077Code>:
    129d:	6f 16 03 4f 17 10 a2 62 31 98 51 31 18 00           o..O...b1.Q1..

000012ab <code_na076Code>:
    12ab:	63 26 03 82 19 a0 92 09 04 00 40 20 10 40 04 82     c&........@ .@..
    12bb:	09 2a 38 00                                         .*8.

000012bf <code_na075Code>:
    12bf:	5f 34 03 d8 12 60 00 01 04 10 49 24 82 08 2a 00     _4...`....I$..*.
    12cf:	00 04 10 41 24 92 08 20 a0                          ...A$.. .

000012d8 <code_na075Times>:
    12d8:	33 00 62 00 33 00 c2 00 66 00 a3 03 86 01 86 01     3.b.3...f.......
    12e8:	86 01 87 01                                         ....

000012ec <code_na074Code>:
    12ec:	63 26 03 82 19 a4 00 41 00 92 08 20 02 00 04 90     c&.....A... ....
    12fc:	49 2a 38 40                                         I*8@

00001300 <code_na073Code>:
    1300:	63 26 03 82 19 a0 82 08 24 10 41 00 00 00 24 92     c&......$.A...$.
    1310:	49 0a 38 00                                         I.8.

00001314 <code_na072Code>:
    1314:	63 26 03 2a 16 a0 90 00 00 90 00 00 10 40 04 82     c&.*.........@..
    1324:	09 2a 38 00                                         .*8.

00001328 <code_na071Code>:
    1328:	47 08 02 2f 13 11 40                                G../..@

0000132f <code_na071Times>:
    132f:	25 00 b5 00 25 00 10 01                             %...%...

00001337 <code_na070Code>:
    1337:	67 21 02 45 13 40 02 08 a2 e0 00 82 28 40           g!.E.@......(@

00001345 <code_na070Times>:
    1345:	1b 00 4c 00 1b 00 b6 00 1b 00 b7 00 1b 00 7f 0c     ..L.............

00001355 <code_na069Code>:
    1355:	63 26 03 82 19 a0 00 00 04 92 49 24 82 00 00 10     c&........I$....
    1365:	49 2a 38 00                                         I*8.

00001369 <code_na068Code>:
    1369:	63 18 02 74 13 8c 30 0d cc 30 0c                    c..t..0..0.

00001374 <code_na068Times>:
    1374:	2b 00 79 00 2b 00 dd 24 82 00 2d 00 83 00 2d 00     +.y.+..$..-...-.

00001384 <code_na067Code>:
    1384:	63 26 03 e3 15 80 02 49 24 90 00 00 80 00 04 12     c&.....I$.......
    1394:	49 2a ba 00                                         I*..

00001398 <code_na066Code>:
    1398:	67 21 02 a6 13 c0 45 02 01 14 08 04 50 00           g!....E.....P.

000013a6 <code_na066Times>:
    13a6:	26 00 14 01 a5 00 9a 00 9f 01 9b 00 e6 02 9a 00     &...............

000013b6 <code_na065Code>:
    13b6:	43 4e 03 d9 13 84 92 01 24 12 00 04 80 08 09 92     CN......$.......
    13c6:	48 04 90 48 00 12 00 20 26 49 20 12 41 20 00 48     H..H... &I .A .H
    13d6:	00 80 80                                            ...

000013d9 <code_na065Times>:
    13d9:	30 00 62 00 30 00 c5 00 62 00 4e 03 8b 01 88 01     0.b.0...b.N.....
    13e9:	a1 07 88 01                                         ....

000013ed <code_na064Code>:
    13ed:	45 34 02 0a 1c c0 01 51 55 54 04 2c 00 15 15 55     E4.....QUT.,...U
    13fd:	40 40                                               @@

000013ff <code_na063Code>:
    13ff:	63 26 03 82 19 a4 92 49 20 00 00 04 92 48 00 00     c&.....I ....H..
    140f:	01 2a 38 40                                         .*8@

00001413 <code_na062Code>:
    1413:	63 26 03 82 19 a0 02 08 04 90 41 24 82 00 00 10     c&........A$....
    1423:	49 2a 38 00                                         I*8.

00001427 <code_na061Code>:
    1427:	63 26 03 82 19 a0 00 08 24 92 41 04 82 00 00 10     c&......$.A.....
    1437:	49 2a 38 00                                         I*8.

0000143b <code_na060Code>:
    143b:	63 26 03 82 19 a0 00 08 04 92 41 24 00 40 00 92     c&........A$.@..
    144b:	09 2a 38 00                                         .*8.

0000144f <code_na059Code>:
    144f:	63 26 03 82 19 a4 12 09 00 80 40 20 10 40 04 82     c&........@ .@..
    145f:	09 2a 38 40                                         .*8@

00001463 <code_na058Code>:
    1463:	77 12 03 6f 14 8d a4 08 04 04 92 4c                 w..o.......L

0000146f <code_na058Times>:
    146f:	16 00 65 00 16 00 db 00 17 00 65 00 17 00 db 00     ..e.......e.....
    147f:	1f 00 da 00                                         ....

00001483 <code_na057Code>:
    1483:	63 0e 02 8c 14 2a 5d a9 60                          c....*].`

0000148c <code_na057Times>:
    148c:	2d 00 94 00 2e 00 94 00 2e 00 5f 01 2e 00 dd 0a     -........._.....

0000149c <code_na056Code>:
    149c:	6b 08 02 a3 14 2a 57                                k....*W

000014a3 <code_na056Times>:
    14a3:	37 00 c1 00 39 00 c0 00 39 00 80 01 3a 00 00 00     7...9...9...:...

000014b3 <code_na055Code>:
    14b3:	00 1b 02 bf 14 81 51 14 b8 15 11 44                 ......Q....D

000014bf <code_na055Times>:
    14bf:	03 00 0a 00 03 00 14 00 03 00 1e 00 03 00 ea 31     ...............1

000014cf <code_na054Code>:
    14cf:	47 1c 02 e8 14 22 20 15 72 22 01 54                 G...." .r".T

000014db <code_na053Code>:
    14db:	47 1e 02 e8 14 22 21 40 1c 88 85 00 40              G...."!@....@

000014e8 <code_na053Times>:
    14e8:	33 00 e8 00 33 00 00 02 33 00 18 03 33 00 43 0b     3...3...3...3.C.

000014f8 <code_na052Code>:
    14f8:	63 26 03 82 19 a4 90 48 00 02 01 20 80 40 04 12     c&.....H... .@..
    1508:	09 2a 38 40                                         .*8@

0000150c <code_na051Code>:
    150c:	63 26 03 82 19 a0 10 01 24 82 48 00 02 40 04 90     c&......$.H..@..
    151c:	09 2a 38 00                                         .*8.

00001520 <code_na050Code>:
    1520:	47 30 02 31 15 c0 00 01 55 55 52 c0 00 01 55 55     G0.1....UUR...UU
    1530:	50                                                  P

00001531 <code_na050Times>:
    1531:	50 00 58 00 50 00 fe 00 50 00 a6 0e 67 01 4b 01     P.X.P...P...g.K.

00001541 <code_na049Code>:
    1541:	57 0b 02 49 15 14 11 40                             W..I...@

00001549 <code_na049Times>:
    1549:	12 01 56 03 12 01 c2 07                             ..V.....

00001551 <code_na048Code>:
    1551:	63 26 03 e3 15 80 00 00 04 92 49 24 92 00 00 00     c&........I$....
    1561:	49 2a ba 00                                         I*..

00001565 <code_na047Code>:
    1565:	63 26 03 82 19 a0 00 40 04 92 09 24 92 09 20 00     c&.....@...$.. .
    1575:	40 0a 38 00                                         @.8.

00001579 <code_na046Code>:
    1579:	87 17 03 87 15 0b 12 63 44 92 6b 44 92 50           .......cD.kD.P

00001587 <code_na046Times>:
    1587:	33 00 15 01 34 00 35 00 34 00 69 00 34 00 15 01     3...4.5.4.i.4...
    1597:	34 00 df 09 34 00 09 32 67 00 36 00                 4...4..2g.6.

000015a3 <code_na045Code>:
    15a3:	67 28 03 b7 15 80 90 00 00 90 00 04 92 00 00 00     g(..............
    15b3:	49 2a 97 48                                         I*.H

000015b7 <code_na045Times>:
    15b7:	3a 00 35 00 3a 00 a7 00 3a 00 8e 11 3a 00 cf 25     :.5.:...:...:..%
    15c7:	c7 01 c1 01 c8 01 c1 01                             ........

000015cf <code_na044Code>:
    15cf:	63 26 03 e3 15 84 90 00 00 02 49 20 80 00 04 12     c&........I ....
    15df:	49 2a ba 40                                         I*.@

000015e3 <code_na044Times>:
    15e3:	33 00 33 00 33 00 a0 00 33 00 00 10 33 00 29 25     3.3.3...3...3.)%
    15f3:	af 01 b4 01 73 03 db 00                             ....s...

000015fb <code_na043Code>:
    15fb:	63 18 02 06 16 15 75 56 55 75 54                    c.....uVUuT

00001606 <code_na043Times>:
    1606:	2b 00 78 00 2b 00 79 00 2b 00 a3 0d 83 00 2d 00     +.x.+.y.+.....-.

00001616 <code_na042Code>:
    1616:	63 26 03 2a 16 a4 80 00 20 82 49 00 02 00 04 90     c&.*.... .I.....
    1626:	49 2a 38 40                                         I*8@

0000162a <code_na042Times>:
    162a:	36 00 41 00 36 00 aa 00 36 00 03 10 36 00 dc 21     6.A.6...6...6..!
    163a:	83 03 e2 00 83 03 a5 01                             ........

00001642 <code_na041Code>:
    1642:	33 1a 02 4e 16 e2 20 80 78 88 20 00                 3..N.. .x. .

0000164e <code_na041Times>:
    164e:	3a 00 3e 00 3a 00 ba 0a 75 00 3e 00 f2 00 3e 00     :.>.:...u.>...>.

0000165e <code_na040Code>:
    165e:	63 08 02 65 16 06 04                                c..e...

00001665 <code_na040Times>:
    1665:	71 00 65 00 71 00 c9 00 71 00 93 0a                 q.e.q...q...

00001671 <code_na039Code>:
    1671:	63 04 02 77 16 11                                   c..w..

00001677 <code_na039Times>:
    1677:	71 00 65 00 b0 02 93 0a                             q.e.....

0000167f <code_na038Code>:
    167f:	63 26 03 82 19 a4 10 40 00 82 09 20 80 40 04 12     c&.....@... .@..
    168f:	09 2a 38 40                                         .*8@

00001693 <code_na037Code>:
    1693:	5f 0b 02 9b 16 80 45 00                             _.....E.

0000169b <code_na037Times>:
    169b:	27 00 07 01 a4 00 a3 00 02 02 a4 00                 '...........

000016a7 <code_na036Code>:
    16a7:	6b 0b 02 af 16 15 9a 9c                             k.......

000016af <code_na036Times>:
    16af:	52 00 45 02 54 00 fa 00 54 00 44 02 55 00 00 00     R.E.T...T.D.U...

000016bf <code_na035Code>:
    16bf:	5f 16 02 ca 16 16 66 5d 59 99 50                    _.....f]Y.P

000016ca <code_na035Times>:
    16ca:	60 00 5d 00 61 00 5d 00 61 00 1f 01 61 00 67 0d     `.].a.].a...a.g.

000016da <code_na034Code>:
    16da:	67 26 03 78 1b a0 00 41 04 92 08 24 92 48 00 00     g&.x...A...$.H..
    16ea:	01 2b 3d 00                                         .+=.

000016ee <code_na033Code>:
    16ee:	67 64 03 19 17 60 10 40 04 80 09 00 00 00 00 10     gd...`.@........
    16fe:	00 20 82 00 20 00 00 0a 00 41 00 12 00 24 00 00     . .. ....A...$..
    170e:	00 00 40 00 82 08 00 80 00 00 00                    ..@........

00001719 <code_na033Times>:
    1719:	28 00 2b 00 28 00 7a 00 28 00 b1 14 4e 01 9c 00     (.+.(.z.(...N...
    1729:	50 01 9b 00                                         P...

0000172d <code_na032Code>:
    172d:	67 26 03 9e 1a 80 00 41 04 12 08 20 80 00 04 12     g&.....A... ....
    173d:	49 2a ba 00                                         I*..

00001741 <code_na031Code>:
    1741:	6f 18 03 4f 17 06 12 49 46 32 61 24 94 60           o..O...IF2a$.`

0000174f <code_na031Times>:
    174f:	58 00 59 00 58 00 5a 00 58 00 b3 00 58 00 11 23     X.Y.X.Z.X...X..#
    175f:	b1 00 5a 00                                         ..Z.

00001763 <code_na030Code>:
    1763:	67 26 03 9e 1a 80 00 41 04 12 08 20 00 00 04 92     g&.....A... ....
    1773:	49 2a ba 00                                         I*..

00001777 <code_na029Code>:
    1777:	6f 16 03 85 17 0c 92 53 46 16 49 29 a2 c0           o......SF.I)..

00001785 <code_na029Times>:
    1785:	58 00 5a 00 58 00 5b 00 58 00 b5 00 b1 00 5b 00     X.Z.X.[.X.....[.
    1795:	b1 00 10 23                                         ...#

00001799 <code_na028Code>:
    1799:	67 24 02 a7 17 c4 45 14 04 6c 44 51 40 44           g$....E..lDQ@D

000017a7 <code_na028Times>:
    17a7:	76 00 79 00 76 00 0f 01 76 00 8e 12 02 01 0f 01     v.y.v...v.......

000017b7 <code_na027Code>:
    17b7:	45 34 02 0a 1c c5 41 11 10 14 44 6c 54 11 11 01     E4....A...DlT...
    17c7:	44 44                                               DD

000017c9 <code_na026Code>:
    17c9:	65 22 03 db 17 09 94 53 65 32 99 85 32 8a 6c a6     e".....Se2..2.l.
    17d9:	53 20                                               S 

000017db <code_na026Times>:
    17db:	31 00 31 00 31 00 32 00 31 00 9a 01 31 00 fe 01     1.1.1.2.1...1...
    17eb:	31 00 26 31                                         1.&1

000017ef <code_na025Code>:
    17ef:	67 34 03 08 18 64 92 49 00 00 00 00 02 49 2a 12     g4...d.I.....I*.
    17ff:	49 24 00 00 00 00 09 24 90                          I$.....$.

00001808 <code_na025Times>:
    1808:	54 00 5a 00 54 00 08 01 54 00 8e 0d 5a 01 5e 01     T.Z.T...T...Z.^.
    1818:	5b 01 5e 01                                         [.^.

0000181c <code_na024Code>:
    181c:	67 1a 03 2b 18 69 24 10 40 03 12 48 20 80 00        g..+.i$.@..H ..

0000182b <code_na024Times>:
    182b:	3a 00 3c 00 3a 00 09 0a 76 00 3c 00 ed 00 3c 00     :.<.:...v.<...<.
    183b:	ee 00 3c 00                                         ..<.

0000183f <code_na023Code>:
    183f:	63 2c 02 4f 18 a1 18 61 a1 18 7a 11 86 1a 11 86     c,.O...a..z.....

0000184f <code_na023Times>:
    184f:	30 00 34 00 30 00 99 01 30 00 f8 01 30 00 dd 28     0.4.0...0...0..(

0000185f <code_na022Code>:
    185f:	67 26 03 73 18 80 02 40 00 02 40 00 00 01 24 92     g&.s...@..@...$.
    186f:	48 0a ba 00                                         H...

00001873 <code_na022Times>:
    1873:	35 00 3c 00 35 00 af 00 35 00 6f 11 35 00 ed 24     5.<.5...5.o.5..$
    1883:	7c 03 c2 01 7f 03 e1 00                             |.......

0000188b <code_na021Code>:
    188b:	67 26 03 9f 18 80 10 40 08 82 08 01 c0 08 20 04     g&.....@...... .
    189b:	41 04 00 00                                         A...

0000189f <code_na021Times>:
    189f:	30 00 34 00 30 00 a0 00 30 00 90 01 30 00 1f 09     0.4.0...0...0...
    18af:	1f 03 90 01                                         ....

000018b3 <code_na020Code>:
    18b3:	67 26 03 c7 18 a0 10 00 04 82 49 20 02 00 04 90     g&........I ....
    18c3:	49 2b 3d 00                                         I+=.

000018c7 <code_na020Times>:
    18c7:	3c 00 37 00 3c 00 a3 00 3c 00 03 10 3c 00 e2 25     <.7.<...<...<..%
    18d7:	3d 00 00 00 82 03 cd 01 84 03 e6 00                 =...........

000018e3 <code_na019Code>:
    18e3:	67 64 03 0e 19 60 10 40 04 80 09 00 00 00 00 10     gd...`.@........
    18f3:	00 20 10 00 20 80 00 0a 00 41 00 12 00 24 00 00     . .. ....A...$..
    1903:	00 00 40 00 80 40 00 82 00 00 00                    ..@..@.....

0000190e <code_na019Times>:
    190e:	28 00 2a 00 28 00 7c 00 28 00 f9 11 45 01 a3 00     (.*.(.|.(...E...
    191e:	46 01 a3 00                                         F...

00001922 <code_na018Code>:
    1922:	67 88 03 5a 19 60 82 08 24 10 41 00 12 40 04 80     g..Z.`..$.A..@..
    1932:	09 2a 02 08 20 90 41 04 00 49 00 12 00 24 a8 08     .*.. .A..I...$..
    1942:	20 82 41 04 10 01 24 00 48 00 92 a0 20 82 09 04      .A...$.H... ...
    1952:	10 40 04 90 01 20 02 48                             .@... .H

0000195a <code_na018Times>:
    195a:	33 00 37 00 33 00 a1 00 33 00 06 0a 51 03 ad 01     3.7.3...3...Q...
    196a:	51 03 ae 01                                         Q...

0000196e <code_na017Code>:
    196e:	63 26 03 82 19 a0 02 48 04 90 01 20 80 40 04 12     c&.....H... .@..
    197e:	09 2a 38 00                                         .*8.

00001982 <code_na017Times>:
    1982:	38 00 39 00 38 00 af 00 38 00 36 10 38 00 1b 25     8.9.8...8.6.8..%
    1992:	82 03 e3 00 82 03 c1 01                             ........

0000199a <code_na016Code>:
    199a:	73 22 02 a8 19 54 04 10 00 95 01 04 00 10           s"...T........

000019a8 <code_na016Times>:
    19a8:	1c 00 5a 00 1c 00 d3 00 1c 00 cb 09                 ..Z.........

000019b4 <code_na015Code>:
    19b4:	67 26 03 78 1b a0 80 01 04 12 48 24 00 00 00 92     g&.x......H$....
    19c4:	49 2b 3d 00                                         I+=.

000019c8 <code_na014Code>:
    19c8:	67 26 03 78 1b a0 00 09 04 92 40 24 80 00 00 12     g&.x......@$....
    19d8:	49 2b 3d 00                                         I+=.

000019dc <code_na013Code>:
    19dc:	67 30 03 f3 19 80 12 40 04 00 09 00 12 41 24 82     g0.....@.....A$.
    19ec:	01 00 10 48 24 aa e8                                ...H$..

000019f3 <code_na013Times>:
    19f3:	35 00 37 00 35 00 a7 00 35 00 00 09 35 00 99 24     5.7.5...5...5..$
    1a03:	7d 03 c0 01 7f 03 bf 01                             }.......

00001a0b <code_na012Code>:
    1a0b:	67 34 03 24 1a 64 12 08 24 00 08 20 10 09 2a 10     g4.$.d..$.. ..*.
    1a1b:	48 20 90 00 20 80 40 24 90                          H .. .@$.

00001a24 <code_na012Times>:
    1a24:	51 00 57 00 51 00 fe 00 51 00 d0 0c 4b 01 50 01     Q.W.Q...Q...K.P.
    1a34:	4b 01 51 01                                         K.Q.

00001a38 <code_na011Code>:
    1a38:	67 26 03 4c 1a a0 00 41 04 92 08 24 90 40 00 02     g&.L...A...$.@..
    1a48:	09 2b 3d 00                                         .+=.

00001a4c <code_na011Times>:
    1a4c:	37 00 37 00 37 00 ac 00 37 00 c7 0f 37 00 84 24     7.7.7...7...7..$
    1a5c:	38 00 00 00 74 03 ba 01 75 03 e1 00                 8...t...u...

00001a68 <code_na010Code>:
    1a68:	67 34 02 7a 1a d4 00 15 10 25 00 05 44 09 40 01     g4.z.....%..D.@.
    1a78:	51 01                                               Q.

00001a7a <code_na010Times>:
    1a7a:	33 00 37 00 33 00 9e 00 33 00 ee 08 49 03 a3 01     3.7.3...3...I...

00001a8a <code_na009Code>:
    1a8a:	67 26 03 9e 1a 84 90 00 20 80 08 00 00 09 24 92     g&...... .....$.
    1a9a:	40 0a ba 40                                         @..@

00001a9e <code_na009Times>:
    1a9e:	35 00 38 00 35 00 ab 00 35 00 6e 0f 35 00 7f 25     5.8.5...5.n.5..%
    1aae:	82 03 c3 01 84 03 e2 00                             ........

00001ab6 <code_na008Code>:
    1ab6:	67 44 03 d5 1a 64 00 49 00 92 00 20 82 01 04 10     gD...d.I... ....
    1ac6:	48 2a 10 01 24 02 48 00 82 08 04 10 41 20 90        H*..$.H.....A .

00001ad5 <code_na008Times>:
    1ad5:	38 00 3a 00 38 00 aa 00 38 00 ab 0f 82 03 c2 01     8.:.8...8.......
    1ae5:	84 03 c1 01                                         ....

00001ae9 <code_na007Code>:
    1ae9:	65 22 03 fb 1a 09 94 53 29 94 d9 85 32 8a 65 32     e".....S)...2.e2
    1af9:	9b 20                                               . 

00001afb <code_na007Times>:
    1afb:	31 00 31 00 31 00 32 00 31 00 9a 01 31 00 fe 01     1.1.1.2.1...1...
    1b0b:	31 00 4b 2f                                         1.K/

00001b0f <code_na006Code>:
    1b0f:	67 44 03 2e 1b 64 90 00 04 90 00 00 80 00 04 12     gD...d..........
    1b1f:	49 2a 12 40 00 12 40 00 02 00 00 10 49 24 90        I*.@..@.....I$.

00001b2e <code_na006Times>:
    1b2e:	32 00 3e 00 32 00 ac 00 32 00 bd 11 c0 01 d2 01     2.>.2...2.......
    1b3e:	c2 01 d1 01                                         ....

00001b42 <code_na005Code>:
    1b42:	6f 18 03 50 1b 10 92 49 46 33 09 24 94 60           o..P...IF3.$.`

00001b50 <code_na005Times>:
    1b50:	58 00 5a 00 58 00 5b 00 58 00 b5 00 58 00 10 23     X.Z.X.[.X...X..#
    1b60:	b1 00 5b 00                                         ..[.

00001b64 <code_na004Code>:
    1b64:	67 26 03 78 1b a0 00 01 04 92 48 20 80 40 04 12     g&.x......H .@..
    1b74:	09 2b 3d 00                                         .+=.

00001b78 <code_na004Times>:
    1b78:	37 00 39 00 37 00 aa 00 37 00 6d 0f 37 00 97 25     7.9.7...7.m.7..%
    1b88:	38 00 00 00 82 03 c5 01 84 03 e2 00                 8...........

00001b94 <code_na003Code>:
    1b94:	67 40 02 a9 1b 15 5a 65 67 95 65 9a 9b 95 5a 65     g@....Zeg.e...Ze
    1ba4:	67 95 65 9a 99                                      g.e..

00001ba9 <code_na003Times>:
    1ba9:	1a 00 b9 00 1b 00 50 00 1b 00 b9 00 1b 00 c5 11     ......P.........

00001bb9 <code_na002Code>:
    1bb9:	6b 64 03 e4 1b 60 80 00 00 00 08 00 00 00 20 00     kd...`........ .
    1bc9:	00 04 12 48 04 12 48 2a 02 00 00 00 00 20 00 00     ...H..H*..... ..
    1bd9:	00 80 00 00 10 49 20 10 49 20 80                    .....I .I .

00001be4 <code_na002Times>:
    1be4:	2a 00 2e 00 2a 00 85 00 2a 00 5f 1d 5b 01 b0 00     *...*...*._.[...
    1bf4:	5b 01 b1 00                                         [...

00001bf8 <code_na001Code>:
    1bf8:	45 34 02 0a 1c d5 41 11 00 14 44 6d 54 11 10 01     E4....A...DmT...
    1c08:	44 45                                               DE

00001c0a <code_na001Times>:
    1c0a:	32 00 64 00 32 00 c8 00 32 00 20 03 90 01 90 01     2.d.2...2. .....

00001c1a <code_na000Code>:
    1c1a:	67 1a 02 26 1c e2 20 80 78 88 20 10                 g..&.. .x. .

00001c26 <code_na000Times>:
    1c26:	3c 00 3c 00 3c 00 8c 0a 78 00 3c 00 f0 00 3c 00     <.<.<...x.<...<.

00001c36 <__ctors_end>:
    1c36:	11 24       	eor	r1, r1
    1c38:	1f be       	out	0x3f, r1	; 63
    1c3a:	cf e5       	ldi	r28, 0x5F	; 95
    1c3c:	d2 e0       	ldi	r29, 0x02	; 2
    1c3e:	de bf       	out	0x3e, r29	; 62
    1c40:	cd bf       	out	0x3d, r28	; 61

00001c42 <__do_copy_data>:
    1c42:	10 e0       	ldi	r17, 0x00	; 0
    1c44:	a0 e6       	ldi	r26, 0x60	; 96
    1c46:	b0 e0       	ldi	r27, 0x00	; 0
    1c48:	ea e0       	ldi	r30, 0x0A	; 10
    1c4a:	ff e1       	ldi	r31, 0x1F	; 31
    1c4c:	02 c0       	rjmp	.+4      	; 0x1c52 <__do_copy_data+0x10>
    1c4e:	05 90       	lpm	r0, Z+
    1c50:	0d 92       	st	X+, r0
    1c52:	a2 36       	cpi	r26, 0x62	; 98
    1c54:	b1 07       	cpc	r27, r17
    1c56:	d9 f7       	brne	.-10     	; 0x1c4e <__do_copy_data+0xc>

00001c58 <__do_clear_bss>:
    1c58:	20 e0       	ldi	r18, 0x00	; 0
    1c5a:	a2 e6       	ldi	r26, 0x62	; 98
    1c5c:	b0 e0       	ldi	r27, 0x00	; 0
    1c5e:	01 c0       	rjmp	.+2      	; 0x1c62 <.do_clear_bss_start>

00001c60 <.do_clear_bss_loop>:
    1c60:	1d 92       	st	X+, r1

00001c62 <.do_clear_bss_start>:
    1c62:	a6 36       	cpi	r26, 0x66	; 102
    1c64:	b2 07       	cpc	r27, r18
    1c66:	e1 f7       	brne	.-8      	; 0x1c60 <.do_clear_bss_loop>
    1c68:	94 d0       	rcall	.+296    	; 0x1d92 <main>
    1c6a:	4d c1       	rjmp	.+666    	; 0x1f06 <_exit>

00001c6c <__bad_interrupt>:
    1c6c:	c9 c1       	rjmp	.+914    	; 0x2000 <__data_load_end+0xf4>

00001c6e <read_bits>:
uint8_t bits_r=0;
PGM_P code_ptr;

// we cant read more than 8 bits at a time so dont try!
uint8_t read_bits(uint8_t count)
{
    1c6e:	e0 91 64 00 	lds	r30, 0x0064
    1c72:	f0 91 65 00 	lds	r31, 0x0065
    1c76:	60 91 62 00 	lds	r22, 0x0062
    1c7a:	90 91 63 00 	lds	r25, 0x0063
    1c7e:	28 2f       	mov	r18, r24
    1c80:	30 e0       	ldi	r19, 0x00	; 0
    1c82:	21 50       	subi	r18, 0x01	; 1
    1c84:	31 09       	sbc	r19, r1
  uint8_t i;
  uint8_t tmp=0;
    1c86:	80 e0       	ldi	r24, 0x00	; 0
  
  // we need to read back count bytes
  for (i=0; i<count; i++) {
    1c88:	2f 3f       	cpi	r18, 0xFF	; 255
    1c8a:	4f ef       	ldi	r20, 0xFF	; 255
    1c8c:	34 07       	cpc	r19, r20
    1c8e:	e1 f0       	breq	.+56     	; 0x1cc8 <read_bits+0x5a>
    // check if the 8-bit buffer we have has run out
    if (bitsleft_r == 0) {
    1c90:	91 11       	cpse	r25, r1
    1c92:	06 c0       	rjmp	.+12     	; 0x1ca0 <read_bits+0x32>
      // in which case we read a new byte in
      bits_r = pgm_read_byte(code_ptr++);
    1c94:	af 01       	movw	r20, r30
    1c96:	4f 5f       	subi	r20, 0xFF	; 255
    1c98:	5f 4f       	sbci	r21, 0xFF	; 255
    1c9a:	64 91       	lpm	r22, Z
    1c9c:	fa 01       	movw	r30, r20
      // and reset the buffer size (8 bites in a byte)
      bitsleft_r = 8;
    1c9e:	98 e0       	ldi	r25, 0x08	; 8
    }
    // remove one bit
    bitsleft_r--;
    1ca0:	91 50       	subi	r25, 0x01	; 1
    // and shift it off of the end of 'bits_r'
    tmp |= (((bits_r >> (bitsleft_r)) & 1) << (count-1-i));
    1ca2:	46 2f       	mov	r20, r22
    1ca4:	50 e0       	ldi	r21, 0x00	; 0
    1ca6:	09 2e       	mov	r0, r25
    1ca8:	02 c0       	rjmp	.+4      	; 0x1cae <read_bits+0x40>
    1caa:	55 95       	asr	r21
    1cac:	47 95       	ror	r20
    1cae:	0a 94       	dec	r0
    1cb0:	e2 f7       	brpl	.-8      	; 0x1caa <read_bits+0x3c>
    1cb2:	41 70       	andi	r20, 0x01	; 1
    1cb4:	55 27       	eor	r21, r21
    1cb6:	02 2e       	mov	r0, r18
    1cb8:	01 c0       	rjmp	.+2      	; 0x1cbc <read_bits+0x4e>
    1cba:	44 0f       	add	r20, r20
    1cbc:	0a 94       	dec	r0
    1cbe:	ea f7       	brpl	.-6      	; 0x1cba <read_bits+0x4c>
    1cc0:	84 2b       	or	r24, r20
    1cc2:	21 50       	subi	r18, 0x01	; 1
    1cc4:	31 09       	sbc	r19, r1
    1cc6:	e0 cf       	rjmp	.-64     	; 0x1c88 <read_bits+0x1a>
    1cc8:	90 93 63 00 	sts	0x0063, r25
    1ccc:	f0 93 65 00 	sts	0x0065, r31
    1cd0:	e0 93 64 00 	sts	0x0064, r30
    1cd4:	60 93 62 00 	sts	0x0062, r22
  }
  // return the selected bits in the LSB part of tmp
  return tmp; 
}
    1cd8:	08 95       	ret

00001cda <delay_ten_us>:
// it is 'hardcoded' and is calibrated by adjusting DELAY_CNT 
// in main.h Unless you are changing the crystal from 8mhz, dont
// mess with this.
void delay_ten_us(uint16_t us) {
  uint8_t timer;
  while (us != 0) {
    1cda:	00 97       	sbiw	r24, 0x00	; 0
    1cdc:	41 f0       	breq	.+16     	; 0x1cee <delay_ten_us+0x14>
    1cde:	2c e0       	ldi	r18, 0x0C	; 12
    // for 8MHz we want to delay 80 cycles per 10 microseconds
    // this code is tweaked to give about that amount.
    for (timer=0; timer <= DELAY_CNT; timer++) {
      NOP;
    1ce0:	00 00       	nop
      NOP;
    1ce2:	00 00       	nop
    1ce4:	21 50       	subi	r18, 0x01	; 1
void delay_ten_us(uint16_t us) {
  uint8_t timer;
  while (us != 0) {
    // for 8MHz we want to delay 80 cycles per 10 microseconds
    // this code is tweaked to give about that amount.
    for (timer=0; timer <= DELAY_CNT; timer++) {
    1ce6:	e1 f7       	brne	.-8      	; 0x1ce0 <delay_ten_us+0x6>
      NOP;
      NOP;
    }
    NOP;
    1ce8:	00 00       	nop
    us--;
    1cea:	01 97       	sbiw	r24, 0x01	; 1
    1cec:	f6 cf       	rjmp	.-20     	; 0x1cda <delay_ten_us>
  }
}
    1cee:	08 95       	ret

00001cf0 <xmitCodeElement>:

/* This function is the 'workhorse' of transmitting IR codes.
   Given the on and off times, it turns on the PWM output on and off
   to generate one 'pair' from a long code. Each code has ~50 pairs! */
void xmitCodeElement(uint16_t ontime, uint16_t offtime, uint8_t PWM_code )
{
    1cf0:	cf 93       	push	r28
    1cf2:	df 93       	push	r29
    1cf4:	eb 01       	movw	r28, r22
  // start Timer0 outputting the carrier frequency to IR emitters on and OC0A 
  // (PB0, pin 5)
  TCNT0 = 0; // reset the timers so they are aligned
    1cf6:	12 be       	out	0x32, r1	; 50
  TIFR = 0;  // clean out the timer flags
    1cf8:	18 be       	out	0x38, r1	; 56

  if(PWM_code) {
    1cfa:	44 23       	and	r20, r20
    1cfc:	29 f0       	breq	.+10     	; 0x1d08 <xmitCodeElement+0x18>
    // 99% of codes are PWM codes, they are pulses of a carrier frequecy
    // Usually the carrier is around 38KHz, and we generate that with PWM
    // timer 0
    TCCR0A =_BV(COM0A0) | _BV(WGM01);          // set up timer 0
    1cfe:	22 e4       	ldi	r18, 0x42	; 66
    1d00:	2a bd       	out	0x2a, r18	; 42
    TCCR0B = _BV(CS00);
    1d02:	21 e0       	ldi	r18, 0x01	; 1
    1d04:	23 bf       	out	0x33, r18	; 51
    1d06:	01 c0       	rjmp	.+2      	; 0x1d0a <xmitCodeElement+0x1a>
  } else {
    // However some codes dont use PWM in which case we just turn the IR
    // LED on for the period of time.
    PORTB &= ~_BV(IRLED);
    1d08:	c0 98       	cbi	0x18, 0	; 24
  }

  // Now we wait, allowing the PWM hardware to pulse out the carrier 
  // frequency for the specified 'on' time
  delay_ten_us(ontime);
    1d0a:	e7 df       	rcall	.-50     	; 0x1cda <delay_ten_us>
  
  // Now we have to turn it off so disable the PWM output
  TCCR0A = 0;
    1d0c:	1a bc       	out	0x2a, r1	; 42
  TCCR0B = 0;
    1d0e:	13 be       	out	0x33, r1	; 51
  // And make sure that the IR LED is off too (since the PWM may have 
  // been stopped while the LED is on!)
  PORTB |= _BV(IRLED);           // turn off IR LED
    1d10:	c0 9a       	sbi	0x18, 0	; 24

  // Now we wait for the specified 'off' time
  delay_ten_us(offtime);
    1d12:	ce 01       	movw	r24, r28
}
    1d14:	df 91       	pop	r29
    1d16:	cf 91       	pop	r28
  // And make sure that the IR LED is off too (since the PWM may have 
  // been stopped while the LED is on!)
  PORTB |= _BV(IRLED);           // turn off IR LED

  // Now we wait for the specified 'off' time
  delay_ten_us(offtime);
    1d18:	e0 cf       	rjmp	.-64     	; 0x1cda <delay_ten_us>

00001d1a <tvbgone_sleep>:
/****************************** SLEEP FUNCTIONS ********/

void tvbgone_sleep( void )
{
  // Shut down everything and put the CPU to sleep
  TCCR0A = 0;           // turn off frequency generator (should be off already)
    1d1a:	1a bc       	out	0x2a, r1	; 42
  TCCR0B = 0;           // turn off frequency generator (should be off already)
    1d1c:	13 be       	out	0x33, r1	; 51
  PORTB |= _BV(LED) |       // turn off visible LED
    1d1e:	88 b3       	in	r24, 0x18	; 24
    1d20:	85 60       	ori	r24, 0x05	; 5
    1d22:	88 bb       	out	0x18, r24	; 24
void wdt_disable (void)
{
	if (_SFR_IO_REG_P (_WD_CONTROL_REG))
	{
        uint8_t register temp_reg;
		__asm__ __volatile__ (
    1d24:	0f b6       	in	r0, 0x3f	; 63
    1d26:	f8 94       	cli
    1d28:	a8 95       	wdr
    1d2a:	81 b5       	in	r24, 0x21	; 33
    1d2c:	88 61       	ori	r24, 0x18	; 24
    1d2e:	81 bd       	out	0x21, r24	; 33
    1d30:	11 bc       	out	0x21, r1	; 33
    1d32:	0f be       	out	0x3f, r0	; 63
           _BV(IRLED);     // turn off IR LED

  wdt_disable();           // turn off the watchdog (since we want to sleep
  delay_ten_us(1000);      // wait 10 millisec
    1d34:	88 ee       	ldi	r24, 0xE8	; 232
    1d36:	93 e0       	ldi	r25, 0x03	; 3
    1d38:	d0 df       	rcall	.-96     	; 0x1cda <delay_ten_us>

  MCUCR = _BV(SM1) |  _BV(SE);    // power down mode,  SE enables Sleep Modes
    1d3a:	80 e3       	ldi	r24, 0x30	; 48
    1d3c:	85 bf       	out	0x35, r24	; 53
  sleep_cpu();                    // put CPU into Power Down Sleep Mode
    1d3e:	88 95       	sleep
    1d40:	08 95       	ret

00001d42 <quickflashLED>:


// This function quickly pulses the visible LED (connected to PB0, pin 5)
// This will indicate to the user that a code is being transmitted
void quickflashLED( void ) {
  PORTB &= ~_BV(LED);   // turn on visible LED at PB0 by pulling pin to ground
    1d42:	c2 98       	cbi	0x18, 2	; 24
  delay_ten_us(3000);   // 30 millisec delay
    1d44:	88 eb       	ldi	r24, 0xB8	; 184
    1d46:	9b e0       	ldi	r25, 0x0B	; 11
    1d48:	c8 df       	rcall	.-112    	; 0x1cda <delay_ten_us>
  PORTB |= _BV(LED);    // turn off visible LED at PB0 by pulling pin to +3V
    1d4a:	c2 9a       	sbi	0x18, 2	; 24
    1d4c:	08 95       	ret

00001d4e <quickflashLEDx>:
}

// This function just flashes the visible LED a couple times, used to
// tell the user what region is selected
void quickflashLEDx( uint8_t x ) {
    1d4e:	cf 93       	push	r28
    1d50:	c8 2f       	mov	r28, r24
  quickflashLED();
  while(--x) {
  	wdt_reset();
	delay_ten_us(15000);     // 150 millisec delay between flahes
	quickflashLED();
    1d52:	f7 df       	rcall	.-18     	; 0x1d42 <quickflashLED>

// This function just flashes the visible LED a couple times, used to
// tell the user what region is selected
void quickflashLEDx( uint8_t x ) {
  quickflashLED();
  while(--x) {
    1d54:	c1 50       	subi	r28, 0x01	; 1
    1d56:	29 f0       	breq	.+10     	; 0x1d62 <quickflashLEDx+0x14>
  	wdt_reset();
    1d58:	a8 95       	wdr
	delay_ten_us(15000);     // 150 millisec delay between flahes
    1d5a:	88 e9       	ldi	r24, 0x98	; 152
    1d5c:	9a e3       	ldi	r25, 0x3A	; 58
    1d5e:	bd df       	rcall	.-134    	; 0x1cda <delay_ten_us>
    1d60:	f8 cf       	rjmp	.-16     	; 0x1d52 <quickflashLEDx+0x4>
	quickflashLED();
  }
  wdt_reset();                // kick the dog
    1d62:	a8 95       	wdr
}
    1d64:	cf 91       	pop	r28
    1d66:	08 95       	ret

00001d68 <flashslowLEDx>:

// This is like the above but way slower, used for when the tvbgone
// crashes and wants to warn the user
void flashslowLEDx( uint8_t num_blinks )
{
    1d68:	cf 93       	push	r28
    1d6a:	df 93       	push	r29
    1d6c:	d8 2f       	mov	r29, r24
  uint8_t i;
  for(i=0;i<num_blinks;i++)
    1d6e:	c0 e0       	ldi	r28, 0x00	; 0
    1d70:	cd 17       	cp	r28, r29
    1d72:	61 f0       	breq	.+24     	; 0x1d8c <flashslowLEDx+0x24>
    {
      // turn on visible LED at PB0 by pulling pin to ground
      PORTB &= ~_BV(LED);    
    1d74:	c2 98       	cbi	0x18, 2	; 24
      delay_ten_us(50000);         // 500 millisec delay
    1d76:	80 e5       	ldi	r24, 0x50	; 80
    1d78:	93 ec       	ldi	r25, 0xC3	; 195
    1d7a:	af df       	rcall	.-162    	; 0x1cda <delay_ten_us>
      wdt_reset();                 // kick the dog
    1d7c:	a8 95       	wdr
      // turn off visible LED at PB0 by pulling pin to +3V
      PORTB |= _BV(LED);          
    1d7e:	c2 9a       	sbi	0x18, 2	; 24
      delay_ten_us(50000);	   // 500 millisec delay
    1d80:	80 e5       	ldi	r24, 0x50	; 80
    1d82:	93 ec       	ldi	r25, 0xC3	; 195
    1d84:	aa df       	rcall	.-172    	; 0x1cda <delay_ten_us>
      wdt_reset();                 // kick the dog
    1d86:	a8 95       	wdr
// This is like the above but way slower, used for when the tvbgone
// crashes and wants to warn the user
void flashslowLEDx( uint8_t num_blinks )
{
  uint8_t i;
  for(i=0;i<num_blinks;i++)
    1d88:	cf 5f       	subi	r28, 0xFF	; 255
    1d8a:	f2 cf       	rjmp	.-28     	; 0x1d70 <flashslowLEDx+0x8>
      // turn off visible LED at PB0 by pulling pin to +3V
      PORTB |= _BV(LED);          
      delay_ten_us(50000);	   // 500 millisec delay
      wdt_reset();                 // kick the dog
    }
}
    1d8c:	df 91       	pop	r29
    1d8e:	cf 91       	pop	r28
    1d90:	08 95       	ret

00001d92 <main>:
    1d92:	7f 92       	push	r7
    1d94:	8f 92       	push	r8
    1d96:	9f 92       	push	r9
    1d98:	af 92       	push	r10
    1d9a:	bf 92       	push	r11
    1d9c:	cf 92       	push	r12
    1d9e:	df 92       	push	r13
    1da0:	ef 92       	push	r14
    1da2:	ff 92       	push	r15
    1da4:	0f 93       	push	r16
    1da6:	1f 93       	push	r17
    1da8:	cf 93       	push	r28
    1daa:	df 93       	push	r29
    1dac:	10 be       	out	0x30, r1	; 48
    1dae:	1a bc       	out	0x2a, r1	; 42
    1db0:	13 be       	out	0x33, r1	; 51
    1db2:	84 b7       	in	r24, 0x34	; 52
    1db4:	14 be       	out	0x34, r1	; 52
    1db6:	98 e1       	ldi	r25, 0x18	; 24
    1db8:	91 bd       	out	0x21, r25	; 33
    1dba:	11 bc       	out	0x21, r1	; 33
    1dbc:	95 e0       	ldi	r25, 0x05	; 5
    1dbe:	97 bb       	out	0x17, r25	; 23
    1dc0:	97 e0       	ldi	r25, 0x07	; 7
    1dc2:	98 bb       	out	0x18, r25	; 24
    1dc4:	82 ff       	sbrs	r24, 2
    1dc6:	03 c0       	rjmp	.+6      	; 0x1dce <main+0x3c>
    1dc8:	82 e0       	ldi	r24, 0x02	; 2
    1dca:	ce df       	rcall	.-100    	; 0x1d68 <flashslowLEDx>
    1dcc:	a6 df       	rcall	.-180    	; 0x1d1a <tvbgone_sleep>
    1dce:	88 e8       	ldi	r24, 0x88	; 136
    1dd0:	93 e1       	ldi	r25, 0x13	; 19
    1dd2:	83 df       	rcall	.-250    	; 0x1cda <delay_ten_us>
    1dd4:	c6 b3       	in	r28, 0x16	; 22
    1dd6:	c1 fb       	bst	r28, 1
    1dd8:	88 27       	eor	r24, r24
    1dda:	80 f9       	bld	r24, 0
    1ddc:	c1 e0       	ldi	r28, 0x01	; 1
    1dde:	c8 27       	eor	r28, r24
    1de0:	83 e0       	ldi	r24, 0x03	; 3
    1de2:	8c 0f       	add	r24, r28
    1de4:	b4 df       	rcall	.-152    	; 0x1d4e <quickflashLEDx>
    1de6:	88 ea       	ldi	r24, 0xA8	; 168
    1de8:	91 e6       	ldi	r25, 0x61	; 97
    1dea:	77 df       	rcall	.-274    	; 0x1cda <delay_ten_us>
    1dec:	99 e2       	ldi	r25, 0x29	; 41
    1dee:	88 e1       	ldi	r24, 0x18	; 24
    1df0:	0f b6       	in	r0, 0x3f	; 63
    1df2:	f8 94       	cli
    1df4:	a8 95       	wdr
    1df6:	81 bd       	out	0x21, r24	; 33
    1df8:	0f be       	out	0x3f, r0	; 63
    1dfa:	91 bd       	out	0x21, r25	; 33
    1dfc:	c1 11       	cpse	r28, r1
    1dfe:	03 c0       	rjmp	.+6      	; 0x1e06 <main+0x74>
    1e00:	90 90 61 00 	lds	r9, 0x0061
    1e04:	02 c0       	rjmp	.+4      	; 0x1e0a <main+0x78>
    1e06:	90 90 60 00 	lds	r9, 0x0060
    1e0a:	8e e1       	ldi	r24, 0x1E	; 30
    1e0c:	e8 2e       	mov	r14, r24
    1e0e:	80 e0       	ldi	r24, 0x00	; 0
    1e10:	f8 2e       	mov	r15, r24
    1e12:	90 e0       	ldi	r25, 0x00	; 0
    1e14:	c9 2e       	mov	r12, r25
    1e16:	91 e0       	ldi	r25, 0x01	; 1
    1e18:	d9 2e       	mov	r13, r25
    1e1a:	10 e0       	ldi	r17, 0x00	; 0
    1e1c:	19 15       	cp	r17, r9
    1e1e:	09 f4       	brne	.+2      	; 0x1e22 <main+0x90>
    1e20:	51 c0       	rjmp	.+162    	; 0x1ec4 <main+0x132>
    1e22:	a8 95       	wdr
    1e24:	c1 11       	cpse	r28, r1
    1e26:	02 c0       	rjmp	.+4      	; 0x1e2c <main+0x9a>
    1e28:	f6 01       	movw	r30, r12
    1e2a:	01 c0       	rjmp	.+2      	; 0x1e2e <main+0x9c>
    1e2c:	f7 01       	movw	r30, r14
    1e2e:	85 91       	lpm	r24, Z+
    1e30:	94 91       	lpm	r25, Z
    1e32:	90 93 65 00 	sts	0x0065, r25
    1e36:	80 93 64 00 	sts	0x0064, r24
    1e3a:	e0 91 64 00 	lds	r30, 0x0064
    1e3e:	f0 91 65 00 	lds	r31, 0x0065
    1e42:	cf 01       	movw	r24, r30
    1e44:	01 96       	adiw	r24, 0x01	; 1
    1e46:	90 93 65 00 	sts	0x0065, r25
    1e4a:	80 93 64 00 	sts	0x0064, r24
    1e4e:	d4 91       	lpm	r29, Z
    1e50:	d9 bd       	out	0x29, r29	; 41
    1e52:	80 91 64 00 	lds	r24, 0x0064
    1e56:	90 91 65 00 	lds	r25, 0x0065
    1e5a:	fc 01       	movw	r30, r24
    1e5c:	84 90       	lpm	r8, Z
    1e5e:	31 96       	adiw	r30, 0x01	; 1
    1e60:	04 91       	lpm	r16, Z
    1e62:	31 96       	adiw	r30, 0x01	; 1
    1e64:	a5 90       	lpm	r10, Z+
    1e66:	b4 90       	lpm	r11, Z
    1e68:	04 96       	adiw	r24, 0x04	; 4
    1e6a:	90 93 65 00 	sts	0x0065, r25
    1e6e:	80 93 64 00 	sts	0x0064, r24
    1e72:	71 2c       	mov	r7, r1
    1e74:	78 14       	cp	r7, r8
    1e76:	c1 f0       	breq	.+48     	; 0x1ea8 <main+0x116>
    1e78:	80 2f       	mov	r24, r16
    1e7a:	f9 de       	rcall	.-526    	; 0x1c6e <read_bits>
    1e7c:	88 0f       	add	r24, r24
    1e7e:	88 0f       	add	r24, r24
    1e80:	28 2f       	mov	r18, r24
    1e82:	30 e0       	ldi	r19, 0x00	; 0
    1e84:	f5 01       	movw	r30, r10
    1e86:	e2 0f       	add	r30, r18
    1e88:	f3 1f       	adc	r31, r19
    1e8a:	85 91       	lpm	r24, Z+
    1e8c:	94 91       	lpm	r25, Z
    1e8e:	f9 01       	movw	r30, r18
    1e90:	32 96       	adiw	r30, 0x02	; 2
    1e92:	ea 0d       	add	r30, r10
    1e94:	fb 1d       	adc	r31, r11
    1e96:	65 91       	lpm	r22, Z+
    1e98:	74 91       	lpm	r23, Z
    1e9a:	41 e0       	ldi	r20, 0x01	; 1
    1e9c:	d1 11       	cpse	r29, r1
    1e9e:	01 c0       	rjmp	.+2      	; 0x1ea2 <main+0x110>
    1ea0:	40 e0       	ldi	r20, 0x00	; 0
    1ea2:	26 df       	rcall	.-436    	; 0x1cf0 <xmitCodeElement>
    1ea4:	73 94       	inc	r7
    1ea6:	e6 cf       	rjmp	.-52     	; 0x1e74 <main+0xe2>
    1ea8:	10 92 63 00 	sts	0x0063, r1
    1eac:	88 ea       	ldi	r24, 0xA8	; 168
    1eae:	91 e6       	ldi	r25, 0x61	; 97
    1eb0:	14 df       	rcall	.-472    	; 0x1cda <delay_ten_us>
    1eb2:	47 df       	rcall	.-370    	; 0x1d42 <quickflashLED>
    1eb4:	1f 5f       	subi	r17, 0xFF	; 255
    1eb6:	f2 e0       	ldi	r31, 0x02	; 2
    1eb8:	ef 0e       	add	r14, r31
    1eba:	f1 1c       	adc	r15, r1
    1ebc:	82 e0       	ldi	r24, 0x02	; 2
    1ebe:	c8 0e       	add	r12, r24
    1ec0:	d1 1c       	adc	r13, r1
    1ec2:	ac cf       	rjmp	.-168    	; 0x1e1c <main+0x8a>
    1ec4:	0f b6       	in	r0, 0x3f	; 63
    1ec6:	f8 94       	cli
    1ec8:	a8 95       	wdr
    1eca:	81 b5       	in	r24, 0x21	; 33
    1ecc:	88 61       	ori	r24, 0x18	; 24
    1ece:	81 bd       	out	0x21, r24	; 33
    1ed0:	11 bc       	out	0x21, r1	; 33
    1ed2:	0f be       	out	0x3f, r0	; 63
    1ed4:	8c ed       	ldi	r24, 0xDC	; 220
    1ed6:	9f ef       	ldi	r25, 0xFF	; 255
    1ed8:	00 df       	rcall	.-512    	; 0x1cda <delay_ten_us>
    1eda:	8c ed       	ldi	r24, 0xDC	; 220
    1edc:	9f ef       	ldi	r25, 0xFF	; 255
    1ede:	fd de       	rcall	.-518    	; 0x1cda <delay_ten_us>
    1ee0:	84 e0       	ldi	r24, 0x04	; 4
    1ee2:	35 df       	rcall	.-406    	; 0x1d4e <quickflashLEDx>
    1ee4:	1a df       	rcall	.-460    	; 0x1d1a <tvbgone_sleep>
    1ee6:	80 e0       	ldi	r24, 0x00	; 0
    1ee8:	90 e0       	ldi	r25, 0x00	; 0
    1eea:	df 91       	pop	r29
    1eec:	cf 91       	pop	r28
    1eee:	1f 91       	pop	r17
    1ef0:	0f 91       	pop	r16
    1ef2:	ff 90       	pop	r15
    1ef4:	ef 90       	pop	r14
    1ef6:	df 90       	pop	r13
    1ef8:	cf 90       	pop	r12
    1efa:	bf 90       	pop	r11
    1efc:	af 90       	pop	r10
    1efe:	9f 90       	pop	r9
    1f00:	8f 90       	pop	r8
    1f02:	7f 90       	pop	r7
    1f04:	08 95       	ret

00001f06 <_exit>:
    1f06:	f8 94       	cli

00001f08 <__stop_program>:
    1f08:	ff cf       	rjmp	.-2      	; 0x1f08 <__stop_program>
